aurora@aurora-virtual-machine:~/ICS/2_bomblab/bomblab/bomb429$ objdump -d bomb

bomb:     file format elf64-x86-64


Disassembly of section .init:

0000000000000f30 <_init>:
 f30:	48 83 ec 08          	sub    $0x8,%rsp
 f34:	48 8b 05 ad 30 20 00 	mov    0x2030ad(%rip),%rax        # 203fe8 <__gmon_start__>
 f3b:	48 85 c0             	test   %rax,%rax
 f3e:	74 02                	je     f42 <_init+0x12>
 f40:	ff d0                	callq  *%rax
 f42:	48 83 c4 08          	add    $0x8,%rsp
 f46:	c3                   	retq   

Disassembly of section .plt:

0000000000000f50 <.plt>:
     f50:	ff 35 92 2f 20 00    	pushq  0x202f92(%rip)        # 203ee8 <_GLOBAL_OFFSET_TABLE_+0x8>
     f56:	ff 25 94 2f 20 00    	jmpq   *0x202f94(%rip)        # 203ef0 <_GLOBAL_OFFSET_TABLE_+0x10>
     f5c:	0f 1f 40 00          	nopl   0x0(%rax)

0000000000000f60 <getenv@plt>:
     f60:	ff 25 92 2f 20 00    	jmpq   *0x202f92(%rip)        # 203ef8 <getenv@GLIBC_2.2.5>
     f66:	68 00 00 00 00       	pushq  $0x0
     f6b:	e9 e0 ff ff ff       	jmpq   f50 <.plt>

0000000000000f70 <strcasecmp@plt>:
     f70:	ff 25 8a 2f 20 00    	jmpq   *0x202f8a(%rip)        # 203f00 <strcasecmp@GLIBC_2.2.5>
     f76:	68 01 00 00 00       	pushq  $0x1
     f7b:	e9 d0 ff ff ff       	jmpq   f50 <.plt>

0000000000000f80 <__errno_location@plt>:
     f80:	ff 25 82 2f 20 00    	jmpq   *0x202f82(%rip)        # 203f08 <__errno_location@GLIBC_2.2.5>
     f86:	68 02 00 00 00       	pushq  $0x2
     f8b:	e9 c0 ff ff ff       	jmpq   f50 <.plt>

0000000000000f90 <strcpy@plt>:
     f90:	ff 25 7a 2f 20 00    	jmpq   *0x202f7a(%rip)        # 203f10 <strcpy@GLIBC_2.2.5>
     f96:	68 03 00 00 00       	pushq  $0x3
     f9b:	e9 b0 ff ff ff       	jmpq   f50 <.plt>

0000000000000fa0 <puts@plt>:
     fa0:	ff 25 72 2f 20 00    	jmpq   *0x202f72(%rip)        # 203f18 <puts@GLIBC_2.2.5>
     fa6:	68 04 00 00 00       	pushq  $0x4
     fab:	e9 a0 ff ff ff       	jmpq   f50 <.plt>

0000000000000fb0 <write@plt>:
     fb0:	ff 25 6a 2f 20 00    	jmpq   *0x202f6a(%rip)        # 203f20 <write@GLIBC_2.2.5>
     fb6:	68 05 00 00 00       	pushq  $0x5
     fbb:	e9 90 ff ff ff       	jmpq   f50 <.plt>

0000000000000fc0 <__stack_chk_fail@plt>:
     fc0:	ff 25 62 2f 20 00    	jmpq   *0x202f62(%rip)        # 203f28 <__stack_chk_fail@GLIBC_2.4>
     fc6:	68 06 00 00 00       	pushq  $0x6
     fcb:	e9 80 ff ff ff       	jmpq   f50 <.plt>

0000000000000fd0 <alarm@plt>:
     fd0:	ff 25 5a 2f 20 00    	jmpq   *0x202f5a(%rip)        # 203f30 <alarm@GLIBC_2.2.5>
     fd6:	68 07 00 00 00       	pushq  $0x7
     fdb:	e9 70 ff ff ff       	jmpq   f50 <.plt>

0000000000000fe0 <close@plt>:
     fe0:	ff 25 52 2f 20 00    	jmpq   *0x202f52(%rip)        # 203f38 <close@GLIBC_2.2.5>
     fe6:	68 08 00 00 00       	pushq  $0x8
     feb:	e9 60 ff ff ff       	jmpq   f50 <.plt>

0000000000000ff0 <read@plt>:
     ff0:	ff 25 4a 2f 20 00    	jmpq   *0x202f4a(%rip)        # 203f40 <read@GLIBC_2.2.5>
     ff6:	68 09 00 00 00       	pushq  $0x9
     ffb:	e9 50 ff ff ff       	jmpq   f50 <.plt>

0000000000001000 <fgets@plt>:
    1000:	ff 25 42 2f 20 00    	jmpq   *0x202f42(%rip)        # 203f48 <fgets@GLIBC_2.2.5>
    1006:	68 0a 00 00 00       	pushq  $0xa
    100b:	e9 40 ff ff ff       	jmpq   f50 <.plt>

0000000000001010 <signal@plt>:
    1010:	ff 25 3a 2f 20 00    	jmpq   *0x202f3a(%rip)        # 203f50 <signal@GLIBC_2.2.5>
    1016:	68 0b 00 00 00       	pushq  $0xb
    101b:	e9 30 ff ff ff       	jmpq   f50 <.plt>

0000000000001020 <gethostbyname@plt>:
    1020:	ff 25 32 2f 20 00    	jmpq   *0x202f32(%rip)        # 203f58 <gethostbyname@GLIBC_2.2.5>
    1026:	68 0c 00 00 00       	pushq  $0xc
    102b:	e9 20 ff ff ff       	jmpq   f50 <.plt>

0000000000001030 <__memmove_chk@plt>:
    1030:	ff 25 2a 2f 20 00    	jmpq   *0x202f2a(%rip)        # 203f60 <__memmove_chk@GLIBC_2.3.4>
    1036:	68 0d 00 00 00       	pushq  $0xd
    103b:	e9 10 ff ff ff       	jmpq   f50 <.plt>

0000000000001040 <strtol@plt>:
    1040:	ff 25 22 2f 20 00    	jmpq   *0x202f22(%rip)        # 203f68 <strtol@GLIBC_2.2.5>
    1046:	68 0e 00 00 00       	pushq  $0xe
    104b:	e9 00 ff ff ff       	jmpq   f50 <.plt>

0000000000001050 <memcpy@plt>:
    1050:	ff 25 1a 2f 20 00    	jmpq   *0x202f1a(%rip)        # 203f70 <memcpy@GLIBC_2.14>
    1056:	68 0f 00 00 00       	pushq  $0xf
    105b:	e9 f0 fe ff ff       	jmpq   f50 <.plt>

0000000000001060 <fflush@plt>:
    1060:	ff 25 12 2f 20 00    	jmpq   *0x202f12(%rip)        # 203f78 <fflush@GLIBC_2.2.5>
    1066:	68 10 00 00 00       	pushq  $0x10
    106b:	e9 e0 fe ff ff       	jmpq   f50 <.plt>

0000000000001070 <__isoc99_sscanf@plt>:
    1070:	ff 25 0a 2f 20 00    	jmpq   *0x202f0a(%rip)        # 203f80 <__isoc99_sscanf@GLIBC_2.7>
    1076:	68 11 00 00 00       	pushq  $0x11
    107b:	e9 d0 fe ff ff       	jmpq   f50 <.plt>

0000000000001080 <__printf_chk@plt>:
    1080:	ff 25 02 2f 20 00    	jmpq   *0x202f02(%rip)        # 203f88 <__printf_chk@GLIBC_2.3.4>
    1086:	68 12 00 00 00       	pushq  $0x12
    108b:	e9 c0 fe ff ff       	jmpq   f50 <.plt>

0000000000001090 <fopen@plt>:
    1090:	ff 25 fa 2e 20 00    	jmpq   *0x202efa(%rip)        # 203f90 <fopen@GLIBC_2.2.5>
    1096:	68 13 00 00 00       	pushq  $0x13
    109b:	e9 b0 fe ff ff       	jmpq   f50 <.plt>

00000000000010a0 <gethostname@plt>:
    10a0:	ff 25 f2 2e 20 00    	jmpq   *0x202ef2(%rip)        # 203f98 <gethostname@GLIBC_2.2.5>
    10a6:	68 14 00 00 00       	pushq  $0x14
    10ab:	e9 a0 fe ff ff       	jmpq   f50 <.plt>

00000000000010b0 <exit@plt>:
    10b0:	ff 25 ea 2e 20 00    	jmpq   *0x202eea(%rip)        # 203fa0 <exit@GLIBC_2.2.5>
    10b6:	68 15 00 00 00       	pushq  $0x15
    10bb:	e9 90 fe ff ff       	jmpq   f50 <.plt>

00000000000010c0 <connect@plt>:
    10c0:	ff 25 e2 2e 20 00    	jmpq   *0x202ee2(%rip)        # 203fa8 <connect@GLIBC_2.2.5>
    10c6:	68 16 00 00 00       	pushq  $0x16
    10cb:	e9 80 fe ff ff       	jmpq   f50 <.plt>

00000000000010d0 <__fprintf_chk@plt>:
    10d0:	ff 25 da 2e 20 00    	jmpq   *0x202eda(%rip)        # 203fb0 <__fprintf_chk@GLIBC_2.3.4>
    10d6:	68 17 00 00 00       	pushq  $0x17
    10db:	e9 70 fe ff ff       	jmpq   f50 <.plt>

00000000000010e0 <sleep@plt>:
    10e0:	ff 25 d2 2e 20 00    	jmpq   *0x202ed2(%rip)        # 203fb8 <sleep@GLIBC_2.2.5>
    10e6:	68 18 00 00 00       	pushq  $0x18
    10eb:	e9 60 fe ff ff       	jmpq   f50 <.plt>

00000000000010f0 <__ctype_b_loc@plt>:
    10f0:	ff 25 ca 2e 20 00    	jmpq   *0x202eca(%rip)        # 203fc0 <__ctype_b_loc@GLIBC_2.3>
    10f6:	68 19 00 00 00       	pushq  $0x19
    10fb:	e9 50 fe ff ff       	jmpq   f50 <.plt>

0000000000001100 <__sprintf_chk@plt>:
    1100:	ff 25 c2 2e 20 00    	jmpq   *0x202ec2(%rip)        # 203fc8 <__sprintf_chk@GLIBC_2.3.4>
    1106:	68 1a 00 00 00       	pushq  $0x1a
    110b:	e9 40 fe ff ff       	jmpq   f50 <.plt>

0000000000001110 <socket@plt>:
    1110:	ff 25 ba 2e 20 00    	jmpq   *0x202eba(%rip)        # 203fd0 <socket@GLIBC_2.2.5>
    1116:	68 1b 00 00 00       	pushq  $0x1b
    111b:	e9 30 fe ff ff       	jmpq   f50 <.plt>

Disassembly of section .plt.got:

0000000000001120 <__cxa_finalize@plt>:
    1120:	ff 25 d2 2e 20 00    	jmpq   *0x202ed2(%rip)        # 203ff8 <__cxa_finalize@GLIBC_2.2.5>
    1126:	66 90                	xchg   %ax,%ax

Disassembly of section .text:

0000000000001130 <_start>:
    1130:	31 ed                	xor    %ebp,%ebp
    1132:	49 89 d1             	mov    %rdx,%r9
    1135:	5e                   	pop    %rsi
    1136:	48 89 e2             	mov    %rsp,%rdx
    1139:	48 83 e4 f0          	and    $0xfffffffffffffff0,%rsp
    113d:	50                   	push   %rax
    113e:	54                   	push   %rsp
    113f:	4c 8d 05 7a 1b 00 00 	lea    0x1b7a(%rip),%r8        # 2cc0 <__libc_csu_fini>
    1146:	48 8d 0d 03 1b 00 00 	lea    0x1b03(%rip),%rcx        # 2c50 <__libc_csu_init>
    114d:	48 8d 3d e6 00 00 00 	lea    0xe6(%rip),%rdi        # 123a <main>
    1154:	ff 15 86 2e 20 00    	callq  *0x202e86(%rip)        # 203fe0 <__libc_start_main@GLIBC_2.2.5>
    115a:	f4                   	hlt    
    115b:	0f 1f 44 00 00       	nopl   0x0(%rax,%rax,1)

0000000000001160 <deregister_tm_clones>:
    1160:	48 8d 3d 99 43 20 00 	lea    0x204399(%rip),%rdi        # 205500 <stdout@@GLIBC_2.2.5>
    1167:	55                   	push   %rbp
    1168:	48 8d 05 91 43 20 00 	lea    0x204391(%rip),%rax        # 205500 <stdout@@GLIBC_2.2.5>
    116f:	48 39 f8             	cmp    %rdi,%rax
    1172:	48 89 e5             	mov    %rsp,%rbp
    1175:	74 19                	je     1190 <deregister_tm_clones+0x30>
    1177:	48 8b 05 5a 2e 20 00 	mov    0x202e5a(%rip),%rax        # 203fd8 <_ITM_deregisterTMCloneTable>
    117e:	48 85 c0             	test   %rax,%rax
    1181:	74 0d                	je     1190 <deregister_tm_clones+0x30>
    1183:	5d                   	pop    %rbp
    1184:	ff e0                	jmpq   *%rax
    1186:	66 2e 0f 1f 84 00 00 	nopw   %cs:0x0(%rax,%rax,1)
    118d:	00 00 00 
    1190:	5d                   	pop    %rbp
    1191:	c3                   	retq   
    1192:	0f 1f 40 00          	nopl   0x0(%rax)
    1196:	66 2e 0f 1f 84 00 00 	nopw   %cs:0x0(%rax,%rax,1)
    119d:	00 00 00 

00000000000011a0 <register_tm_clones>:
    11a0:	48 8d 3d 59 43 20 00 	lea    0x204359(%rip),%rdi        # 205500 <stdout@@GLIBC_2.2.5>
    11a7:	48 8d 35 52 43 20 00 	lea    0x204352(%rip),%rsi        # 205500 <stdout@@GLIBC_2.2.5>
    11ae:	55                   	push   %rbp
    11af:	48 29 fe             	sub    %rdi,%rsi
    11b2:	48 89 e5             	mov    %rsp,%rbp
    11b5:	48 c1 fe 03          	sar    $0x3,%rsi
    11b9:	48 89 f0             	mov    %rsi,%rax
    11bc:	48 c1 e8 3f          	shr    $0x3f,%rax
    11c0:	48 01 c6             	add    %rax,%rsi
    11c3:	48 d1 fe             	sar    %rsi
    11c6:	74 18                	je     11e0 <register_tm_clones+0x40>
    11c8:	48 8b 05 21 2e 20 00 	mov    0x202e21(%rip),%rax        # 203ff0 <_ITM_registerTMCloneTable>
    11cf:	48 85 c0             	test   %rax,%rax
    11d2:	74 0c                	je     11e0 <register_tm_clones+0x40>
    11d4:	5d                   	pop    %rbp
    11d5:	ff e0                	jmpq   *%rax
    11d7:	66 0f 1f 84 00 00 00 	nopw   0x0(%rax,%rax,1)
    11de:	00 00 
    11e0:	5d                   	pop    %rbp
    11e1:	c3                   	retq   
    11e2:	0f 1f 40 00          	nopl   0x0(%rax)
    11e6:	66 2e 0f 1f 84 00 00 	nopw   %cs:0x0(%rax,%rax,1)
    11ed:	00 00 00 

00000000000011f0 <__do_global_dtors_aux>:
    11f0:	80 3d 31 43 20 00 00 	cmpb   $0x0,0x204331(%rip)        # 205528 <completed.7698>
    11f7:	75 2f                	jne    1228 <__do_global_dtors_aux+0x38>
    11f9:	48 83 3d f7 2d 20 00 	cmpq   $0x0,0x202df7(%rip)        # 203ff8 <__cxa_finalize@GLIBC_2.2.5>
    1200:	00 
    1201:	55                   	push   %rbp
    1202:	48 89 e5             	mov    %rsp,%rbp
    1205:	74 0c                	je     1213 <__do_global_dtors_aux+0x23>
    1207:	48 8b 3d fa 2d 20 00 	mov    0x202dfa(%rip),%rdi        # 204008 <__dso_handle>
    120e:	e8 0d ff ff ff       	callq  1120 <__cxa_finalize@plt>
    1213:	e8 48 ff ff ff       	callq  1160 <deregister_tm_clones>
    1218:	c6 05 09 43 20 00 01 	movb   $0x1,0x204309(%rip)        # 205528 <completed.7698>
    121f:	5d                   	pop    %rbp
    1220:	c3                   	retq   
    1221:	0f 1f 80 00 00 00 00 	nopl   0x0(%rax)
    1228:	f3 c3                	repz retq 
    122a:	66 0f 1f 44 00 00    	nopw   0x0(%rax,%rax,1)

0000000000001230 <frame_dummy>:
    1230:	55                   	push   %rbp
    1231:	48 89 e5             	mov    %rsp,%rbp
    1234:	5d                   	pop    %rbp
    1235:	e9 66 ff ff ff       	jmpq   11a0 <register_tm_clones>

000000000000123a <main>:
    123a:	53                   	push   %rbx
    123b:	48 83 ec 10          	sub    $0x10,%rsp
    123f:	64 48 8b 04 25 28 00 	mov    %fs:0x28,%rax
    1246:	00 00 
    1248:	48 89 44 24 08       	mov    %rax,0x8(%rsp)
    124d:	31 c0                	xor    %eax,%eax
    124f:	83 ff 01             	cmp    $0x1,%edi
    1252:	74 7a                	je     12ce <main+0x94>
    1254:	48 89 f3             	mov    %rsi,%rbx
    1257:	83 ff 02             	cmp    $0x2,%edi
    125a:	0f 85 a0 00 00 00    	jne    1300 <main+0xc6>
    1260:	48 8b 7e 08          	mov    0x8(%rsi),%rdi
    1264:	48 8d 35 44 20 00 00 	lea    0x2044(%rip),%rsi        # 32af <array.3419+0x3af>
    126b:	e8 20 fe ff ff       	callq  1090 <fopen@plt>
    1270:	48 89 05 b9 42 20 00 	mov    %rax,0x2042b9(%rip)        # 205530 <infile>
    1277:	48 85 c0             	test   %rax,%rax
    127a:	74 62                	je     12de <main+0xa4>
    127c:	c7 44 24 04 00 00 00 	movl   $0x0,0x4(%rsp)
    1283:	00 
    1284:	48 8d 7c 24 04       	lea    0x4(%rsp),%rdi
    1289:	e8 c6 06 00 00       	callq  1954 <initialize_bomb>
    128e:	83 7c 24 04 01       	cmpl   $0x1,0x4(%rsp)
    1293:	0f 84 8a 00 00 00    	je     1323 <main+0xe9>
    1299:	48 8d 35 c8 1a 00 00 	lea    0x1ac8(%rip),%rsi        # 2d68 <_IO_stdin_used+0x88>
    12a0:	bf 01 00 00 00       	mov    $0x1,%edi
    12a5:	b8 00 00 00 00       	mov    $0x0,%eax
    12aa:	e8 d1 fd ff ff       	callq  1080 <__printf_chk@plt>
    12af:	b8 00 00 00 00       	mov    $0x0,%eax
    12b4:	48 8b 4c 24 08       	mov    0x8(%rsp),%rcx
    12b9:	64 48 33 0c 25 28 00 	xor    %fs:0x28,%rcx
    12c0:	00 00 
    12c2:	0f 85 20 01 00 00    	jne    13e8 <main+0x1ae>
    12c8:	48 83 c4 10          	add    $0x10,%rsp
    12cc:	5b                   	pop    %rbx
    12cd:	c3                   	retq   
    12ce:	48 8b 05 3b 42 20 00 	mov    0x20423b(%rip),%rax        # 205510 <stdin@@GLIBC_2.2.5>
    12d5:	48 89 05 54 42 20 00 	mov    %rax,0x204254(%rip)        # 205530 <infile>
    12dc:	eb 9e                	jmp    127c <main+0x42>
    12de:	48 8b 4b 08          	mov    0x8(%rbx),%rcx
    12e2:	48 8b 13             	mov    (%rbx),%rdx
    12e5:	48 8d 35 f8 19 00 00 	lea    0x19f8(%rip),%rsi        # 2ce4 <_IO_stdin_used+0x4>
    12ec:	bf 01 00 00 00       	mov    $0x1,%edi
    12f1:	e8 8a fd ff ff       	callq  1080 <__printf_chk@plt>
    12f6:	bf 08 00 00 00       	mov    $0x8,%edi
    12fb:	e8 b0 fd ff ff       	callq  10b0 <exit@plt>
    1300:	48 8b 16             	mov    (%rsi),%rdx
    1303:	48 8d 35 f7 19 00 00 	lea    0x19f7(%rip),%rsi        # 2d01 <_IO_stdin_used+0x21>
    130a:	bf 01 00 00 00       	mov    $0x1,%edi
    130f:	b8 00 00 00 00       	mov    $0x0,%eax
    1314:	e8 67 fd ff ff       	callq  1080 <__printf_chk@plt>
    1319:	bf 08 00 00 00       	mov    $0x8,%edi
    131e:	e8 8d fd ff ff       	callq  10b0 <exit@plt>
    1323:	48 8d 3d 7e 1a 00 00 	lea    0x1a7e(%rip),%rdi        # 2da8 <_IO_stdin_used+0xc8>
    132a:	e8 71 fc ff ff       	callq  fa0 <puts@plt>
    132f:	48 8d 3d b2 1a 00 00 	lea    0x1ab2(%rip),%rdi        # 2de8 <_IO_stdin_used+0x108>
    1336:	e8 65 fc ff ff       	callq  fa0 <puts@plt>
    133b:	e8 a5 09 00 00       	callq  1ce5 <read_line>
    1340:	48 89 c7             	mov    %rax,%rdi
    1343:	e8 a5 00 00 00       	callq  13ed <phase_1>
    1348:	e8 df 0a 00 00       	callq  1e2c <phase_defused>
    134d:	48 8d 3d c4 1a 00 00 	lea    0x1ac4(%rip),%rdi        # 2e18 <_IO_stdin_used+0x138>
    1354:	e8 47 fc ff ff       	callq  fa0 <puts@plt>
    1359:	e8 87 09 00 00       	callq  1ce5 <read_line>
    135e:	48 89 c7             	mov    %rax,%rdi
    1361:	e8 a7 00 00 00       	callq  140d <phase_2>
    1366:	e8 c1 0a 00 00       	callq  1e2c <phase_defused>
    136b:	48 8d 3d a9 19 00 00 	lea    0x19a9(%rip),%rdi        # 2d1b <_IO_stdin_used+0x3b>
    1372:	e8 29 fc ff ff       	callq  fa0 <puts@plt>
    1377:	e8 69 09 00 00       	callq  1ce5 <read_line>
    137c:	48 89 c7             	mov    %rax,%rdi
    137f:	e8 02 01 00 00       	callq  1486 <phase_3>
    1384:	e8 a3 0a 00 00       	callq  1e2c <phase_defused>
    1389:	48 8d 3d a9 19 00 00 	lea    0x19a9(%rip),%rdi        # 2d39 <_IO_stdin_used+0x59>
    1390:	e8 0b fc ff ff       	callq  fa0 <puts@plt>
    1395:	e8 4b 09 00 00       	callq  1ce5 <read_line>
    139a:	48 89 c7             	mov    %rax,%rdi
    139d:	e8 04 02 00 00       	callq  15a6 <phase_4>
    13a2:	e8 85 0a 00 00       	callq  1e2c <phase_defused>
    13a7:	48 8d 3d 9a 1a 00 00 	lea    0x1a9a(%rip),%rdi        # 2e48 <_IO_stdin_used+0x168>
    13ae:	e8 ed fb ff ff       	callq  fa0 <puts@plt>
    13b3:	e8 2d 09 00 00       	callq  1ce5 <read_line>
    13b8:	48 89 c7             	mov    %rax,%rdi
    13bb:	e8 61 02 00 00       	callq  1621 <phase_5>
    13c0:	e8 67 0a 00 00       	callq  1e2c <phase_defused>
    13c5:	48 8d 3d 7c 19 00 00 	lea    0x197c(%rip),%rdi        # 2d48 <_IO_stdin_used+0x68>
    13cc:	e8 cf fb ff ff       	callq  fa0 <puts@plt>
    13d1:	e8 0f 09 00 00       	callq  1ce5 <read_line>
    13d6:	48 89 c7             	mov    %rax,%rdi
    13d9:	e8 d2 02 00 00       	callq  16b0 <phase_6>
    13de:	e8 49 0a 00 00       	callq  1e2c <phase_defused>
    13e3:	e9 c7 fe ff ff       	jmpq   12af <main+0x75>
    13e8:	e8 d3 fb ff ff       	callq  fc0 <__stack_chk_fail@plt>

00000000000013ed <phase_1>:
    13ed:	48 83 ec 08          	sub    $0x8,%rsp
    13f1:	48 8d 35 78 1a 00 00 	lea    0x1a78(%rip),%rsi        # 2e70 <_IO_stdin_used+0x190>
    13f8:	e8 0a 05 00 00       	callq  1907 <strings_not_equal>
    13fd:	85 c0                	test   %eax,%eax
    13ff:	75 05                	jne    1406 <phase_1+0x19>
    1401:	48 83 c4 08          	add    $0x8,%rsp
    1405:	c3                   	retq   
    1406:	e8 19 08 00 00       	callq  1c24 <explode_bomb>
    140b:	eb f4                	jmp    1401 <phase_1+0x14>

000000000000140d <phase_2>:
    140d:	53                   	push   %rbx
    140e:	48 83 ec 20          	sub    $0x20,%rsp
    1412:	64 48 8b 04 25 28 00 	mov    %fs:0x28,%rax
    1419:	00 00 
    141b:	48 89 44 24 18       	mov    %rax,0x18(%rsp)
    1420:	31 c0                	xor    %eax,%eax
    1422:	48 89 e6             	mov    %rsp,%rsi
    1425:	e8 7a 08 00 00       	callq  1ca4 <read_six_numbers>
    142a:	83 3c 24 00          	cmpl   $0x0,(%rsp)
    142e:	75 07                	jne    1437 <phase_2+0x2a>
    1430:	83 7c 24 04 01       	cmpl   $0x1,0x4(%rsp)
    1435:	74 05                	je     143c <phase_2+0x2f>
    1437:	e8 e8 07 00 00       	callq  1c24 <explode_bomb>
    143c:	bb 02 00 00 00       	mov    $0x2,%ebx
    1441:	eb 03                	jmp    1446 <phase_2+0x39>
    1443:	83 c3 01             	add    $0x1,%ebx
    1446:	83 fb 05             	cmp    $0x5,%ebx
    1449:	7f 20                	jg     146b <phase_2+0x5e>
    144b:	48 63 d3             	movslq %ebx,%rdx
    144e:	8d 4b fe             	lea    -0x2(%rbx),%ecx
    1451:	48 63 c9             	movslq %ecx,%rcx
    1454:	8d 43 ff             	lea    -0x1(%rbx),%eax
    1457:	48 98                	cltq   
    1459:	8b 04 84             	mov    (%rsp,%rax,4),%eax
    145c:	03 04 8c             	add    (%rsp,%rcx,4),%eax
    145f:	39 04 94             	cmp    %eax,(%rsp,%rdx,4)
    1462:	74 df                	je     1443 <phase_2+0x36>
    1464:	e8 bb 07 00 00       	callq  1c24 <explode_bomb>
    1469:	eb d8                	jmp    1443 <phase_2+0x36>
    146b:	48 8b 44 24 18       	mov    0x18(%rsp),%rax
    1470:	64 48 33 04 25 28 00 	xor    %fs:0x28,%rax
    1477:	00 00 
    1479:	75 06                	jne    1481 <phase_2+0x74>
    147b:	48 83 c4 20          	add    $0x20,%rsp
    147f:	5b                   	pop    %rbx
    1480:	c3                   	retq   
    1481:	e8 3a fb ff ff       	callq  fc0 <__stack_chk_fail@plt>

0000000000001486 <phase_3>:
    1486:	48 83 ec 18          	sub    $0x18,%rsp
    148a:	64 48 8b 04 25 28 00 	mov    %fs:0x28,%rax
    1491:	00 00 
    1493:	48 89 44 24 08       	mov    %rax,0x8(%rsp)
    1498:	31 c0                	xor    %eax,%eax
    149a:	48 8d 4c 24 04       	lea    0x4(%rsp),%rcx
    149f:	48 89 e2             	mov    %rsp,%rdx
    14a2:	48 8d 35 5f 1d 00 00 	lea    0x1d5f(%rip),%rsi        # 3208 <array.3419+0x308>
    14a9:	e8 c2 fb ff ff       	callq  1070 <__isoc99_sscanf@plt>
    14ae:	83 f8 01             	cmp    $0x1,%eax
    14b1:	7e 1d                	jle    14d0 <phase_3+0x4a>
    14b3:	83 3c 24 07          	cmpl   $0x7,(%rsp)
    14b7:	0f 87 99 00 00 00    	ja     1556 <phase_3+0xd0>
    14bd:	8b 04 24             	mov    (%rsp),%eax
    14c0:	48 8d 15 19 1a 00 00 	lea    0x1a19(%rip),%rdx        # 2ee0 <_IO_stdin_used+0x200>
    14c7:	48 63 04 82          	movslq (%rdx,%rax,4),%rax
    14cb:	48 01 d0             	add    %rdx,%rax
    14ce:	ff e0                	jmpq   *%rax
    14d0:	e8 4f 07 00 00       	callq  1c24 <explode_bomb>
    14d5:	eb dc                	jmp    14b3 <phase_3+0x2d>
    14d7:	b8 00 00 00 00       	mov    $0x0,%eax
    14dc:	eb 05                	jmp    14e3 <phase_3+0x5d>
    14de:	b8 eb 00 00 00       	mov    $0xeb,%eax
    14e3:	2d a2 00 00 00       	sub    $0xa2,%eax
    14e8:	05 05 03 00 00       	add    $0x305,%eax
    14ed:	2d 47 02 00 00       	sub    $0x247,%eax
    14f2:	05 47 02 00 00       	add    $0x247,%eax
    14f7:	2d 47 02 00 00       	sub    $0x247,%eax
    14fc:	05 47 02 00 00       	add    $0x247,%eax
    1501:	2d 47 02 00 00       	sub    $0x247,%eax
    1506:	83 3c 24 05          	cmpl   $0x5,(%rsp)
    150a:	7f 06                	jg     1512 <phase_3+0x8c>
    150c:	39 44 24 04          	cmp    %eax,0x4(%rsp)
    1510:	74 05                	je     1517 <phase_3+0x91>
    1512:	e8 0d 07 00 00       	callq  1c24 <explode_bomb>
    1517:	48 8b 44 24 08       	mov    0x8(%rsp),%rax
    151c:	64 48 33 04 25 28 00 	xor    %fs:0x28,%rax
    1523:	00 00 
    1525:	75 3b                	jne    1562 <phase_3+0xdc>
    1527:	48 83 c4 18          	add    $0x18,%rsp
    152b:	c3                   	retq   
    152c:	b8 00 00 00 00       	mov    $0x0,%eax
    1531:	eb b5                	jmp    14e8 <phase_3+0x62>
    1533:	b8 00 00 00 00       	mov    $0x0,%eax
    1538:	eb b3                	jmp    14ed <phase_3+0x67>
    153a:	b8 00 00 00 00       	mov    $0x0,%eax
    153f:	eb b1                	jmp    14f2 <phase_3+0x6c>
    1541:	b8 00 00 00 00       	mov    $0x0,%eax
    1546:	eb af                	jmp    14f7 <phase_3+0x71>
    1548:	b8 00 00 00 00       	mov    $0x0,%eax
    154d:	eb ad                	jmp    14fc <phase_3+0x76>
    154f:	b8 00 00 00 00       	mov    $0x0,%eax
    1554:	eb ab                	jmp    1501 <phase_3+0x7b>
    1556:	e8 c9 06 00 00       	callq  1c24 <explode_bomb>
    155b:	b8 00 00 00 00       	mov    $0x0,%eax
    1560:	eb a4                	jmp    1506 <phase_3+0x80>
    1562:	e8 59 fa ff ff       	callq  fc0 <__stack_chk_fail@plt>

0000000000001567 <func4>:
    1567:	48 83 ec 08          	sub    $0x8,%rsp
    156b:	89 d1                	mov    %edx,%ecx
    156d:	29 f1                	sub    %esi,%ecx
    156f:	89 c8                	mov    %ecx,%eax
    1571:	c1 e8 1f             	shr    $0x1f,%eax
    1574:	01 c8                	add    %ecx,%eax
    1576:	d1 f8                	sar    %eax
    1578:	01 f0                	add    %esi,%eax
    157a:	39 f8                	cmp    %edi,%eax
    157c:	7f 0e                	jg     158c <func4+0x25>
    157e:	39 f8                	cmp    %edi,%eax
    1580:	7c 16                	jl     1598 <func4+0x31>
    1582:	b8 00 00 00 00       	mov    $0x0,%eax
    1587:	48 83 c4 08          	add    $0x8,%rsp
    158b:	c3                   	retq   
    158c:	8d 50 ff             	lea    -0x1(%rax),%edx
    158f:	e8 d3 ff ff ff       	callq  1567 <func4>
    1594:	01 c0                	add    %eax,%eax
    1596:	eb ef                	jmp    1587 <func4+0x20>
    1598:	8d 70 01             	lea    0x1(%rax),%esi
    159b:	e8 c7 ff ff ff       	callq  1567 <func4>
    15a0:	8d 44 00 01          	lea    0x1(%rax,%rax,1),%eax
    15a4:	eb e1                	jmp    1587 <func4+0x20>

00000000000015a6 <phase_4>:
    15a6:	48 83 ec 18          	sub    $0x18,%rsp
    15aa:	64 48 8b 04 25 28 00 	mov    %fs:0x28,%rax
    15b1:	00 00 
    15b3:	48 89 44 24 08       	mov    %rax,0x8(%rsp)
    15b8:	31 c0                	xor    %eax,%eax
    15ba:	48 8d 4c 24 04       	lea    0x4(%rsp),%rcx
    15bf:	48 89 e2             	mov    %rsp,%rdx
    15c2:	48 8d 35 3f 1c 00 00 	lea    0x1c3f(%rip),%rsi        # 3208 <array.3419+0x308>
    15c9:	e8 a2 fa ff ff       	callq  1070 <__isoc99_sscanf@plt>
    15ce:	83 f8 02             	cmp    $0x2,%eax
    15d1:	75 0c                	jne    15df <phase_4+0x39>
    15d3:	8b 04 24             	mov    (%rsp),%eax
    15d6:	85 c0                	test   %eax,%eax
    15d8:	78 05                	js     15df <phase_4+0x39>
    15da:	83 f8 0e             	cmp    $0xe,%eax
    15dd:	7e 05                	jle    15e4 <phase_4+0x3e>
    15df:	e8 40 06 00 00       	callq  1c24 <explode_bomb>
    15e4:	ba 0e 00 00 00       	mov    $0xe,%edx
    15e9:	be 00 00 00 00       	mov    $0x0,%esi
    15ee:	8b 3c 24             	mov    (%rsp),%edi
    15f1:	e8 71 ff ff ff       	callq  1567 <func4>
    15f6:	83 f8 01             	cmp    $0x1,%eax
    15f9:	75 07                	jne    1602 <phase_4+0x5c>
    15fb:	83 7c 24 04 01       	cmpl   $0x1,0x4(%rsp)
    1600:	74 05                	je     1607 <phase_4+0x61>
    1602:	e8 1d 06 00 00       	callq  1c24 <explode_bomb>
    1607:	48 8b 44 24 08       	mov    0x8(%rsp),%rax
    160c:	64 48 33 04 25 28 00 	xor    %fs:0x28,%rax
    1613:	00 00 
    1615:	75 05                	jne    161c <phase_4+0x76>
    1617:	48 83 c4 18          	add    $0x18,%rsp
    161b:	c3                   	retq   
    161c:	e8 9f f9 ff ff       	callq  fc0 <__stack_chk_fail@plt>

0000000000001621 <phase_5>:
    1621:	48 83 ec 18          	sub    $0x18,%rsp
    1625:	64 48 8b 04 25 28 00 	mov    %fs:0x28,%rax
    162c:	00 00 
    162e:	48 89 44 24 08       	mov    %rax,0x8(%rsp)
    1633:	31 c0                	xor    %eax,%eax
    1635:	48 8d 4c 24 04       	lea    0x4(%rsp),%rcx
    163a:	48 89 e2             	mov    %rsp,%rdx
    163d:	48 8d 35 c4 1b 00 00 	lea    0x1bc4(%rip),%rsi        # 3208 <array.3419+0x308>
    1644:	e8 27 fa ff ff       	callq  1070 <__isoc99_sscanf@plt>
    1649:	83 f8 01             	cmp    $0x1,%eax
    164c:	7e 15                	jle    1663 <phase_5+0x42>
    164e:	8b 04 24             	mov    (%rsp),%eax
    1651:	83 e0 0f             	and    $0xf,%eax
    1654:	89 04 24             	mov    %eax,(%rsp)
    1657:	b9 00 00 00 00       	mov    $0x0,%ecx
    165c:	ba 00 00 00 00       	mov    $0x0,%edx
    1661:	eb 1b                	jmp    167e <phase_5+0x5d>
    1663:	e8 bc 05 00 00       	callq  1c24 <explode_bomb>
    1668:	eb e4                	jmp    164e <phase_5+0x2d>
    166a:	83 c2 01             	add    $0x1,%edx
    166d:	48 98                	cltq   
    166f:	48 8d 35 8a 18 00 00 	lea    0x188a(%rip),%rsi        # 2f00 <array.3419>
    1676:	8b 04 86             	mov    (%rsi,%rax,4),%eax
    1679:	89 04 24             	mov    %eax,(%rsp)
    167c:	01 c1                	add    %eax,%ecx
    167e:	8b 04 24             	mov    (%rsp),%eax
    1681:	83 f8 0f             	cmp    $0xf,%eax
    1684:	75 e4                	jne    166a <phase_5+0x49>
    1686:	83 fa 0f             	cmp    $0xf,%edx
    1689:	75 06                	jne    1691 <phase_5+0x70>
    168b:	39 4c 24 04          	cmp    %ecx,0x4(%rsp)
    168f:	74 05                	je     1696 <phase_5+0x75>
    1691:	e8 8e 05 00 00       	callq  1c24 <explode_bomb>
    1696:	48 8b 44 24 08       	mov    0x8(%rsp),%rax
    169b:	64 48 33 04 25 28 00 	xor    %fs:0x28,%rax
    16a2:	00 00 
    16a4:	75 05                	jne    16ab <phase_5+0x8a>
    16a6:	48 83 c4 18          	add    $0x18,%rsp
    16aa:	c3                   	retq   
    16ab:	e8 10 f9 ff ff       	callq  fc0 <__stack_chk_fail@plt>

00000000000016b0 <phase_6>:
    16b0:	41 54                	push   %r12
    16b2:	55                   	push   %rbp
    16b3:	53                   	push   %rbx
    16b4:	48 83 ec 60          	sub    $0x60,%rsp
    16b8:	64 48 8b 04 25 28 00 	mov    %fs:0x28,%rax
    16bf:	00 00 
    16c1:	48 89 44 24 58       	mov    %rax,0x58(%rsp)
    16c6:	31 c0                	xor    %eax,%eax
    16c8:	48 89 e6             	mov    %rsp,%rsi
    16cb:	e8 d4 05 00 00       	callq  1ca4 <read_six_numbers>
    16d0:	bd 00 00 00 00       	mov    $0x0,%ebp
    16d5:	eb 27                	jmp    16fe <phase_6+0x4e>
    16d7:	e8 48 05 00 00       	callq  1c24 <explode_bomb>
    16dc:	eb 33                	jmp    1711 <phase_6+0x61>
    16de:	83 c3 01             	add    $0x1,%ebx
    16e1:	83 fb 05             	cmp    $0x5,%ebx
    16e4:	7f 15                	jg     16fb <phase_6+0x4b>
    16e6:	48 63 c5             	movslq %ebp,%rax
    16e9:	48 63 d3             	movslq %ebx,%rdx
    16ec:	8b 3c 94             	mov    (%rsp,%rdx,4),%edi
    16ef:	39 3c 84             	cmp    %edi,(%rsp,%rax,4)
    16f2:	75 ea                	jne    16de <phase_6+0x2e>
    16f4:	e8 2b 05 00 00       	callq  1c24 <explode_bomb>
    16f9:	eb e3                	jmp    16de <phase_6+0x2e>
    16fb:	44 89 e5             	mov    %r12d,%ebp
    16fe:	83 fd 05             	cmp    $0x5,%ebp
    1701:	7f 17                	jg     171a <phase_6+0x6a>
    1703:	48 63 c5             	movslq %ebp,%rax
    1706:	8b 04 84             	mov    (%rsp,%rax,4),%eax
    1709:	83 e8 01             	sub    $0x1,%eax
    170c:	83 f8 05             	cmp    $0x5,%eax
    170f:	77 c6                	ja     16d7 <phase_6+0x27>
    1711:	44 8d 65 01          	lea    0x1(%rbp),%r12d
    1715:	44 89 e3             	mov    %r12d,%ebx
    1718:	eb c7                	jmp    16e1 <phase_6+0x31>
    171a:	b8 00 00 00 00       	mov    $0x0,%eax
    171f:	eb 11                	jmp    1732 <phase_6+0x82>
    1721:	48 63 c8             	movslq %eax,%rcx
    1724:	ba 07 00 00 00       	mov    $0x7,%edx
    1729:	2b 14 8c             	sub    (%rsp,%rcx,4),%edx
    172c:	89 14 8c             	mov    %edx,(%rsp,%rcx,4)
    172f:	83 c0 01             	add    $0x1,%eax
    1732:	83 f8 05             	cmp    $0x5,%eax
    1735:	7e ea                	jle    1721 <phase_6+0x71>
    1737:	be 00 00 00 00       	mov    $0x0,%esi
    173c:	eb 17                	jmp    1755 <phase_6+0xa5>
    173e:	48 8b 52 08          	mov    0x8(%rdx),%rdx
    1742:	83 c0 01             	add    $0x1,%eax
    1745:	48 63 ce             	movslq %esi,%rcx
    1748:	39 04 8c             	cmp    %eax,(%rsp,%rcx,4)
    174b:	7f f1                	jg     173e <phase_6+0x8e>
    174d:	48 89 54 cc 20       	mov    %rdx,0x20(%rsp,%rcx,8)
    1752:	83 c6 01             	add    $0x1,%esi
    1755:	83 fe 05             	cmp    $0x5,%esi
    1758:	7f 0e                	jg     1768 <phase_6+0xb8>
    175a:	b8 01 00 00 00       	mov    $0x1,%eax
    175f:	48 8d 15 ca 3a 20 00 	lea    0x203aca(%rip),%rdx        # 205230 <node1>
    1766:	eb dd                	jmp    1745 <phase_6+0x95>
    1768:	48 8b 5c 24 20       	mov    0x20(%rsp),%rbx
    176d:	48 89 d9             	mov    %rbx,%rcx
    1770:	b8 01 00 00 00       	mov    $0x1,%eax
    1775:	eb 12                	jmp    1789 <phase_6+0xd9>
    1777:	48 63 d0             	movslq %eax,%rdx
    177a:	48 8b 54 d4 20       	mov    0x20(%rsp,%rdx,8),%rdx
    177f:	48 89 51 08          	mov    %rdx,0x8(%rcx)
    1783:	83 c0 01             	add    $0x1,%eax
    1786:	48 89 d1             	mov    %rdx,%rcx
    1789:	83 f8 05             	cmp    $0x5,%eax
    178c:	7e e9                	jle    1777 <phase_6+0xc7>
    178e:	48 c7 41 08 00 00 00 	movq   $0x0,0x8(%rcx)
    1795:	00 
    1796:	bd 00 00 00 00       	mov    $0x0,%ebp
    179b:	eb 07                	jmp    17a4 <phase_6+0xf4>
    179d:	48 8b 5b 08          	mov    0x8(%rbx),%rbx
    17a1:	83 c5 01             	add    $0x1,%ebp
    17a4:	83 fd 04             	cmp    $0x4,%ebp
    17a7:	7f 11                	jg     17ba <phase_6+0x10a>
    17a9:	48 8b 43 08          	mov    0x8(%rbx),%rax
    17ad:	8b 00                	mov    (%rax),%eax
    17af:	39 03                	cmp    %eax,(%rbx)
    17b1:	7e ea                	jle    179d <phase_6+0xed>
    17b3:	e8 6c 04 00 00       	callq  1c24 <explode_bomb>
    17b8:	eb e3                	jmp    179d <phase_6+0xed>
    17ba:	48 8b 44 24 58       	mov    0x58(%rsp),%rax
    17bf:	64 48 33 04 25 28 00 	xor    %fs:0x28,%rax
    17c6:	00 00 
    17c8:	75 09                	jne    17d3 <phase_6+0x123>
    17ca:	48 83 c4 60          	add    $0x60,%rsp
    17ce:	5b                   	pop    %rbx
    17cf:	5d                   	pop    %rbp
    17d0:	41 5c                	pop    %r12
    17d2:	c3                   	retq   
    17d3:	e8 e8 f7 ff ff       	callq  fc0 <__stack_chk_fail@plt>

00000000000017d8 <fun7>:
    17d8:	48 85 ff             	test   %rdi,%rdi
    17db:	74 34                	je     1811 <fun7+0x39>
    17dd:	48 83 ec 08          	sub    $0x8,%rsp
    17e1:	8b 07                	mov    (%rdi),%eax
    17e3:	39 f0                	cmp    %esi,%eax
    17e5:	7f 0e                	jg     17f5 <fun7+0x1d>
    17e7:	39 f0                	cmp    %esi,%eax
    17e9:	75 17                	jne    1802 <fun7+0x2a>
    17eb:	b8 00 00 00 00       	mov    $0x0,%eax
    17f0:	48 83 c4 08          	add    $0x8,%rsp
    17f4:	c3                   	retq   
    17f5:	48 8b 7f 08          	mov    0x8(%rdi),%rdi
    17f9:	e8 da ff ff ff       	callq  17d8 <fun7>
    17fe:	01 c0                	add    %eax,%eax
    1800:	eb ee                	jmp    17f0 <fun7+0x18>
    1802:	48 8b 7f 10          	mov    0x10(%rdi),%rdi
    1806:	e8 cd ff ff ff       	callq  17d8 <fun7>
    180b:	8d 44 00 01          	lea    0x1(%rax,%rax,1),%eax
    180f:	eb df                	jmp    17f0 <fun7+0x18>
    1811:	b8 ff ff ff ff       	mov    $0xffffffff,%eax
    1816:	c3                   	retq   

0000000000001817 <secret_phase>:
    1817:	53                   	push   %rbx
    1818:	e8 c8 04 00 00       	callq  1ce5 <read_line>
    181d:	ba 0a 00 00 00       	mov    $0xa,%edx
    1822:	be 00 00 00 00       	mov    $0x0,%esi
    1827:	48 89 c7             	mov    %rax,%rdi
    182a:	e8 11 f8 ff ff       	callq  1040 <strtol@plt>
    182f:	48 89 c3             	mov    %rax,%rbx
    1832:	8d 40 ff             	lea    -0x1(%rax),%eax
    1835:	3d e8 03 00 00       	cmp    $0x3e8,%eax
    183a:	77 25                	ja     1861 <secret_phase+0x4a>
    183c:	89 de                	mov    %ebx,%esi
    183e:	48 8d 3d 0b 39 20 00 	lea    0x20390b(%rip),%rdi        # 205150 <n1>
    1845:	e8 8e ff ff ff       	callq  17d8 <fun7>
    184a:	85 c0                	test   %eax,%eax
    184c:	75 1a                	jne    1868 <secret_phase+0x51>
    184e:	48 8d 3d 53 16 00 00 	lea    0x1653(%rip),%rdi        # 2ea8 <_IO_stdin_used+0x1c8>
    1855:	e8 46 f7 ff ff       	callq  fa0 <puts@plt>
    185a:	e8 cd 05 00 00       	callq  1e2c <phase_defused>
    185f:	5b                   	pop    %rbx
    1860:	c3                   	retq   
    1861:	e8 be 03 00 00       	callq  1c24 <explode_bomb>
    1866:	eb d4                	jmp    183c <secret_phase+0x25>
    1868:	e8 b7 03 00 00       	callq  1c24 <explode_bomb>
    186d:	eb df                	jmp    184e <secret_phase+0x37>

000000000000186f <sig_handler>:
    186f:	48 83 ec 08          	sub    $0x8,%rsp
    1873:	48 8d 3d c6 16 00 00 	lea    0x16c6(%rip),%rdi        # 2f40 <array.3419+0x40>
    187a:	e8 21 f7 ff ff       	callq  fa0 <puts@plt>
    187f:	bf 03 00 00 00       	mov    $0x3,%edi
    1884:	e8 57 f8 ff ff       	callq  10e0 <sleep@plt>
    1889:	48 8d 35 f1 18 00 00 	lea    0x18f1(%rip),%rsi        # 3181 <array.3419+0x281>
    1890:	bf 01 00 00 00       	mov    $0x1,%edi
    1895:	b8 00 00 00 00       	mov    $0x0,%eax
    189a:	e8 e1 f7 ff ff       	callq  1080 <__printf_chk@plt>
    189f:	48 8b 3d 5a 3c 20 00 	mov    0x203c5a(%rip),%rdi        # 205500 <stdout@@GLIBC_2.2.5>
    18a6:	e8 b5 f7 ff ff       	callq  1060 <fflush@plt>
    18ab:	bf 01 00 00 00       	mov    $0x1,%edi
    18b0:	e8 2b f8 ff ff       	callq  10e0 <sleep@plt>
    18b5:	48 8d 3d cd 18 00 00 	lea    0x18cd(%rip),%rdi        # 3189 <array.3419+0x289>
    18bc:	e8 df f6 ff ff       	callq  fa0 <puts@plt>
    18c1:	bf 10 00 00 00       	mov    $0x10,%edi
    18c6:	e8 e5 f7 ff ff       	callq  10b0 <exit@plt>

00000000000018cb <invalid_phase>:
    18cb:	48 83 ec 08          	sub    $0x8,%rsp
    18cf:	48 89 fa             	mov    %rdi,%rdx
    18d2:	48 8d 35 b8 18 00 00 	lea    0x18b8(%rip),%rsi        # 3191 <array.3419+0x291>
    18d9:	bf 01 00 00 00       	mov    $0x1,%edi
    18de:	b8 00 00 00 00       	mov    $0x0,%eax
    18e3:	e8 98 f7 ff ff       	callq  1080 <__printf_chk@plt>
    18e8:	bf 08 00 00 00       	mov    $0x8,%edi
    18ed:	e8 be f7 ff ff       	callq  10b0 <exit@plt>

00000000000018f2 <string_length>:
    18f2:	b8 00 00 00 00       	mov    $0x0,%eax
    18f7:	eb 07                	jmp    1900 <string_length+0xe>
    18f9:	48 83 c7 01          	add    $0x1,%rdi
    18fd:	83 c0 01             	add    $0x1,%eax
    1900:	80 3f 00             	cmpb   $0x0,(%rdi)
    1903:	75 f4                	jne    18f9 <string_length+0x7>
    1905:	f3 c3                	repz retq 

0000000000001907 <strings_not_equal>:
    1907:	41 54                	push   %r12
    1909:	55                   	push   %rbp
    190a:	53                   	push   %rbx
    190b:	48 89 fb             	mov    %rdi,%rbx
    190e:	48 89 f5             	mov    %rsi,%rbp
    1911:	e8 dc ff ff ff       	callq  18f2 <string_length>
    1916:	41 89 c4             	mov    %eax,%r12d
    1919:	48 89 ef             	mov    %rbp,%rdi
    191c:	e8 d1 ff ff ff       	callq  18f2 <string_length>
    1921:	41 39 c4             	cmp    %eax,%r12d
    1924:	74 0a                	je     1930 <strings_not_equal+0x29>
    1926:	b8 01 00 00 00       	mov    $0x1,%eax
    192b:	5b                   	pop    %rbx
    192c:	5d                   	pop    %rbp
    192d:	41 5c                	pop    %r12
    192f:	c3                   	retq   
    1930:	0f b6 03             	movzbl (%rbx),%eax
    1933:	84 c0                	test   %al,%al
    1935:	74 0f                	je     1946 <strings_not_equal+0x3f>
    1937:	38 45 00             	cmp    %al,0x0(%rbp)
    193a:	75 11                	jne    194d <strings_not_equal+0x46>
    193c:	48 83 c3 01          	add    $0x1,%rbx
    1940:	48 83 c5 01          	add    $0x1,%rbp
    1944:	eb ea                	jmp    1930 <strings_not_equal+0x29>
    1946:	b8 00 00 00 00       	mov    $0x0,%eax
    194b:	eb de                	jmp    192b <strings_not_equal+0x24>
    194d:	b8 01 00 00 00       	mov    $0x1,%eax
    1952:	eb d7                	jmp    192b <strings_not_equal+0x24>

0000000000001954 <initialize_bomb>:
    1954:	41 54                	push   %r12
    1956:	55                   	push   %rbp
    1957:	53                   	push   %rbx
    1958:	48 81 ec 50 20 00 00 	sub    $0x2050,%rsp
    195f:	49 89 fc             	mov    %rdi,%r12
    1962:	64 48 8b 04 25 28 00 	mov    %fs:0x28,%rax
    1969:	00 00 
    196b:	48 89 84 24 48 20 00 	mov    %rax,0x2048(%rsp)
    1972:	00 
    1973:	31 c0                	xor    %eax,%eax
    1975:	48 8d 35 f3 fe ff ff 	lea    -0x10d(%rip),%rsi        # 186f <sig_handler>
    197c:	bf 02 00 00 00       	mov    $0x2,%edi
    1981:	e8 8a f6 ff ff       	callq  1010 <signal@plt>
    1986:	48 89 e7             	mov    %rsp,%rdi
    1989:	be 40 00 00 00       	mov    $0x40,%esi
    198e:	e8 0d f7 ff ff       	callq  10a0 <gethostname@plt>
    1993:	85 c0                	test   %eax,%eax
    1995:	75 28                	jne    19bf <initialize_bomb+0x6b>
    1997:	89 c5                	mov    %eax,%ebp
    1999:	89 c3                	mov    %eax,%ebx
    199b:	48 63 c3             	movslq %ebx,%rax
    199e:	48 8d 15 db 38 20 00 	lea    0x2038db(%rip),%rdx        # 205280 <host_table>
    19a5:	48 8b 3c c2          	mov    (%rdx,%rax,8),%rdi
    19a9:	48 85 ff             	test   %rdi,%rdi
    19ac:	74 2c                	je     19da <initialize_bomb+0x86>
    19ae:	48 89 e6             	mov    %rsp,%rsi
    19b1:	e8 ba f5 ff ff       	callq  f70 <strcasecmp@plt>
    19b6:	85 c0                	test   %eax,%eax
    19b8:	74 1b                	je     19d5 <initialize_bomb+0x81>
    19ba:	83 c3 01             	add    $0x1,%ebx
    19bd:	eb dc                	jmp    199b <initialize_bomb+0x47>
    19bf:	48 8d 3d b2 15 00 00 	lea    0x15b2(%rip),%rdi        # 2f78 <array.3419+0x78>
    19c6:	e8 d5 f5 ff ff       	callq  fa0 <puts@plt>
    19cb:	bf 08 00 00 00       	mov    $0x8,%edi
    19d0:	e8 db f6 ff ff       	callq  10b0 <exit@plt>
    19d5:	bd 01 00 00 00       	mov    $0x1,%ebp
    19da:	85 ed                	test   %ebp,%ebp
    19dc:	74 35                	je     1a13 <initialize_bomb+0xbf>
    19de:	48 8d 7c 24 40       	lea    0x40(%rsp),%rdi
    19e3:	e8 c3 0f 00 00       	callq  29ab <init_driver>
    19e8:	85 c0                	test   %eax,%eax
    19ea:	78 3d                	js     1a29 <initialize_bomb+0xd5>
    19ec:	41 c7 04 24 01 00 00 	movl   $0x1,(%r12)
    19f3:	00 
    19f4:	48 8b 84 24 48 20 00 	mov    0x2048(%rsp),%rax
    19fb:	00 
    19fc:	64 48 33 04 25 28 00 	xor    %fs:0x28,%rax
    1a03:	00 00 
    1a05:	75 47                	jne    1a4e <initialize_bomb+0xfa>
    1a07:	48 81 c4 50 20 00 00 	add    $0x2050,%rsp
    1a0e:	5b                   	pop    %rbx
    1a0f:	5d                   	pop    %rbp
    1a10:	41 5c                	pop    %r12
    1a12:	c3                   	retq   
    1a13:	48 8d 3d 96 15 00 00 	lea    0x1596(%rip),%rdi        # 2fb0 <array.3419+0xb0>
    1a1a:	e8 81 f5 ff ff       	callq  fa0 <puts@plt>
    1a1f:	bf 08 00 00 00       	mov    $0x8,%edi
    1a24:	e8 87 f6 ff ff       	callq  10b0 <exit@plt>
    1a29:	48 8d 54 24 40       	lea    0x40(%rsp),%rdx
    1a2e:	48 8d 35 6d 17 00 00 	lea    0x176d(%rip),%rsi        # 31a2 <array.3419+0x2a2>
    1a35:	bf 01 00 00 00       	mov    $0x1,%edi
    1a3a:	b8 00 00 00 00       	mov    $0x0,%eax
    1a3f:	e8 3c f6 ff ff       	callq  1080 <__printf_chk@plt>
    1a44:	bf 08 00 00 00       	mov    $0x8,%edi
    1a49:	e8 62 f6 ff ff       	callq  10b0 <exit@plt>
    1a4e:	e8 6d f5 ff ff       	callq  fc0 <__stack_chk_fail@plt>

0000000000001a53 <initialize_bomb_solve>:
    1a53:	f3 c3                	repz retq 

0000000000001a55 <blank_line>:
    1a55:	55                   	push   %rbp
    1a56:	53                   	push   %rbx
    1a57:	48 83 ec 08          	sub    $0x8,%rsp
    1a5b:	48 89 fd             	mov    %rdi,%rbp
    1a5e:	0f b6 5d 00          	movzbl 0x0(%rbp),%ebx
    1a62:	84 db                	test   %bl,%bl
    1a64:	74 1e                	je     1a84 <blank_line+0x2f>
    1a66:	e8 85 f6 ff ff       	callq  10f0 <__ctype_b_loc@plt>
    1a6b:	48 8b 00             	mov    (%rax),%rax
    1a6e:	48 83 c5 01          	add    $0x1,%rbp
    1a72:	48 0f be db          	movsbq %bl,%rbx
    1a76:	f6 44 58 01 20       	testb  $0x20,0x1(%rax,%rbx,2)
    1a7b:	75 e1                	jne    1a5e <blank_line+0x9>
    1a7d:	b8 00 00 00 00       	mov    $0x0,%eax
    1a82:	eb 05                	jmp    1a89 <blank_line+0x34>
    1a84:	b8 01 00 00 00       	mov    $0x1,%eax
    1a89:	48 83 c4 08          	add    $0x8,%rsp
    1a8d:	5b                   	pop    %rbx
    1a8e:	5d                   	pop    %rbp
    1a8f:	c3                   	retq   

0000000000001a90 <skip>:
    1a90:	53                   	push   %rbx
    1a91:	48 63 05 94 3a 20 00 	movslq 0x203a94(%rip),%rax        # 20552c <num_input_strings>
    1a98:	48 8d 04 80          	lea    (%rax,%rax,4),%rax
    1a9c:	48 c1 e0 04          	shl    $0x4,%rax
    1aa0:	48 89 c7             	mov    %rax,%rdi
    1aa3:	48 8d 05 96 3a 20 00 	lea    0x203a96(%rip),%rax        # 205540 <input_strings>
    1aaa:	48 01 c7             	add    %rax,%rdi
    1aad:	48 8b 15 7c 3a 20 00 	mov    0x203a7c(%rip),%rdx        # 205530 <infile>
    1ab4:	be 50 00 00 00       	mov    $0x50,%esi
    1ab9:	e8 42 f5 ff ff       	callq  1000 <fgets@plt>
    1abe:	48 89 c3             	mov    %rax,%rbx
    1ac1:	48 85 c0             	test   %rax,%rax
    1ac4:	74 0c                	je     1ad2 <skip+0x42>
    1ac6:	48 89 c7             	mov    %rax,%rdi
    1ac9:	e8 87 ff ff ff       	callq  1a55 <blank_line>
    1ace:	85 c0                	test   %eax,%eax
    1ad0:	75 bf                	jne    1a91 <skip+0x1>
    1ad2:	48 89 d8             	mov    %rbx,%rax
    1ad5:	5b                   	pop    %rbx
    1ad6:	c3                   	retq   

0000000000001ad7 <send_msg>:
    1ad7:	55                   	push   %rbp
    1ad8:	53                   	push   %rbx
    1ad9:	48 81 ec 18 40 00 00 	sub    $0x4018,%rsp
    1ae0:	41 89 f8             	mov    %edi,%r8d
    1ae3:	48 89 f3             	mov    %rsi,%rbx
    1ae6:	64 48 8b 04 25 28 00 	mov    %fs:0x28,%rax
    1aed:	00 00 
    1aef:	48 89 84 24 08 40 00 	mov    %rax,0x4008(%rsp)
    1af6:	00 
    1af7:	31 c0                	xor    %eax,%eax
    1af9:	8b 35 2d 3a 20 00    	mov    0x203a2d(%rip),%esi        # 20552c <num_input_strings>
    1aff:	8d 46 ff             	lea    -0x1(%rsi),%eax
    1b02:	48 98                	cltq   
    1b04:	48 8d 14 80          	lea    (%rax,%rax,4),%rdx
    1b08:	48 89 d0             	mov    %rdx,%rax
    1b0b:	48 c1 e0 04          	shl    $0x4,%rax
    1b0f:	48 8d 15 2a 3a 20 00 	lea    0x203a2a(%rip),%rdx        # 205540 <input_strings>
    1b16:	48 01 c2             	add    %rax,%rdx
    1b19:	48 c7 c1 ff ff ff ff 	mov    $0xffffffffffffffff,%rcx
    1b20:	b8 00 00 00 00       	mov    $0x0,%eax
    1b25:	48 89 d7             	mov    %rdx,%rdi
    1b28:	f2 ae                	repnz scas %es:(%rdi),%al
    1b2a:	48 89 c8             	mov    %rcx,%rax
    1b2d:	48 f7 d0             	not    %rax
    1b30:	48 83 c0 63          	add    $0x63,%rax
    1b34:	48 3d 00 20 00 00    	cmp    $0x2000,%rax
    1b3a:	0f 87 9c 00 00 00    	ja     1bdc <send_msg+0x105>
    1b40:	45 85 c0             	test   %r8d,%r8d
    1b43:	0f 84 b3 00 00 00    	je     1bfc <send_msg+0x125>
    1b49:	48 8d 05 6c 16 00 00 	lea    0x166c(%rip),%rax        # 31bc <array.3419+0x2bc>
    1b50:	48 89 e5             	mov    %rsp,%rbp
    1b53:	48 83 ec 08          	sub    $0x8,%rsp
    1b57:	52                   	push   %rdx
    1b58:	56                   	push   %rsi
    1b59:	50                   	push   %rax
    1b5a:	4c 8d 0d df 2d 20 00 	lea    0x202ddf(%rip),%r9        # 204940 <authkey>
    1b61:	44 8b 05 d8 35 20 00 	mov    0x2035d8(%rip),%r8d        # 205140 <bomb_id>
    1b68:	48 8d 0d 5e 16 00 00 	lea    0x165e(%rip),%rcx        # 31cd <array.3419+0x2cd>
    1b6f:	ba 00 20 00 00       	mov    $0x2000,%edx
    1b74:	be 01 00 00 00       	mov    $0x1,%esi
    1b79:	48 89 ef             	mov    %rbp,%rdi
    1b7c:	b8 00 00 00 00       	mov    $0x0,%eax
    1b81:	e8 7a f5 ff ff       	callq  1100 <__sprintf_chk@plt>
    1b86:	48 83 c4 20          	add    $0x20,%rsp
    1b8a:	4c 8d 8c 24 00 20 00 	lea    0x2000(%rsp),%r9
    1b91:	00 
    1b92:	41 b8 00 00 00 00    	mov    $0x0,%r8d
    1b98:	48 89 e9             	mov    %rbp,%rcx
    1b9b:	48 8d 15 9e 25 20 00 	lea    0x20259e(%rip),%rdx        # 204140 <lab>
    1ba2:	48 8d 35 97 29 20 00 	lea    0x202997(%rip),%rsi        # 204540 <course>
    1ba9:	48 8d 3d 90 31 20 00 	lea    0x203190(%rip),%rdi        # 204d40 <userid>
    1bb0:	e8 21 10 00 00       	callq  2bd6 <driver_post>
    1bb5:	c7 03 01 00 00 00    	movl   $0x1,(%rbx)
    1bbb:	85 c0                	test   %eax,%eax
    1bbd:	78 49                	js     1c08 <send_msg+0x131>
    1bbf:	48 8b 84 24 08 40 00 	mov    0x4008(%rsp),%rax
    1bc6:	00 
    1bc7:	64 48 33 04 25 28 00 	xor    %fs:0x28,%rax
    1bce:	00 00 
    1bd0:	75 4d                	jne    1c1f <send_msg+0x148>
    1bd2:	48 81 c4 18 40 00 00 	add    $0x4018,%rsp
    1bd9:	5b                   	pop    %rbx
    1bda:	5d                   	pop    %rbp
    1bdb:	c3                   	retq   
    1bdc:	48 8d 35 05 14 00 00 	lea    0x1405(%rip),%rsi        # 2fe8 <array.3419+0xe8>
    1be3:	bf 01 00 00 00       	mov    $0x1,%edi
    1be8:	b8 00 00 00 00       	mov    $0x0,%eax
    1bed:	e8 8e f4 ff ff       	callq  1080 <__printf_chk@plt>
    1bf2:	bf 08 00 00 00       	mov    $0x8,%edi
    1bf7:	e8 b4 f4 ff ff       	callq  10b0 <exit@plt>
    1bfc:	48 8d 05 c1 15 00 00 	lea    0x15c1(%rip),%rax        # 31c4 <array.3419+0x2c4>
    1c03:	e9 48 ff ff ff       	jmpq   1b50 <send_msg+0x79>
    1c08:	48 8d bc 24 00 20 00 	lea    0x2000(%rsp),%rdi
    1c0f:	00 
    1c10:	e8 8b f3 ff ff       	callq  fa0 <puts@plt>
    1c15:	bf 00 00 00 00       	mov    $0x0,%edi
    1c1a:	e8 91 f4 ff ff       	callq  10b0 <exit@plt>
    1c1f:	e8 9c f3 ff ff       	callq  fc0 <__stack_chk_fail@plt>

0000000000001c24 <explode_bomb>:
    1c24:	48 83 ec 18          	sub    $0x18,%rsp
    1c28:	64 48 8b 04 25 28 00 	mov    %fs:0x28,%rax
    1c2f:	00 00 
    1c31:	48 89 44 24 08       	mov    %rax,0x8(%rsp)
    1c36:	31 c0                	xor    %eax,%eax
    1c38:	48 8d 3d 9d 15 00 00 	lea    0x159d(%rip),%rdi        # 31dc <array.3419+0x2dc>
    1c3f:	e8 5c f3 ff ff       	callq  fa0 <puts@plt>
    1c44:	48 8d 3d 9a 15 00 00 	lea    0x159a(%rip),%rdi        # 31e5 <array.3419+0x2e5>
    1c4b:	e8 50 f3 ff ff       	callq  fa0 <puts@plt>
    1c50:	c7 44 24 04 00 00 00 	movl   $0x0,0x4(%rsp)
    1c57:	00 
    1c58:	48 8d 74 24 04       	lea    0x4(%rsp),%rsi
    1c5d:	bf 00 00 00 00       	mov    $0x0,%edi
    1c62:	e8 70 fe ff ff       	callq  1ad7 <send_msg>
    1c67:	83 7c 24 04 01       	cmpl   $0x1,0x4(%rsp)
    1c6c:	74 20                	je     1c8e <explode_bomb+0x6a>
    1c6e:	48 8d 35 9b 13 00 00 	lea    0x139b(%rip),%rsi        # 3010 <array.3419+0x110>
    1c75:	bf 01 00 00 00       	mov    $0x1,%edi
    1c7a:	b8 00 00 00 00       	mov    $0x0,%eax
    1c7f:	e8 fc f3 ff ff       	callq  1080 <__printf_chk@plt>
    1c84:	bf 08 00 00 00       	mov    $0x8,%edi
    1c89:	e8 22 f4 ff ff       	callq  10b0 <exit@plt>
    1c8e:	48 8d 3d c3 13 00 00 	lea    0x13c3(%rip),%rdi        # 3058 <array.3419+0x158>
    1c95:	e8 06 f3 ff ff       	callq  fa0 <puts@plt>
    1c9a:	bf 08 00 00 00       	mov    $0x8,%edi
    1c9f:	e8 0c f4 ff ff       	callq  10b0 <exit@plt>

0000000000001ca4 <read_six_numbers>:
    1ca4:	48 83 ec 08          	sub    $0x8,%rsp
    1ca8:	48 89 f2             	mov    %rsi,%rdx
    1cab:	48 8d 76 14          	lea    0x14(%rsi),%rsi
    1caf:	48 8d 42 10          	lea    0x10(%rdx),%rax
    1cb3:	48 8d 4a 04          	lea    0x4(%rdx),%rcx
    1cb7:	56                   	push   %rsi
    1cb8:	50                   	push   %rax
    1cb9:	4c 8d 4a 0c          	lea    0xc(%rdx),%r9
    1cbd:	4c 8d 42 08          	lea    0x8(%rdx),%r8
    1cc1:	48 8d 35 34 15 00 00 	lea    0x1534(%rip),%rsi        # 31fc <array.3419+0x2fc>
    1cc8:	b8 00 00 00 00       	mov    $0x0,%eax
    1ccd:	e8 9e f3 ff ff       	callq  1070 <__isoc99_sscanf@plt>
    1cd2:	48 83 c4 10          	add    $0x10,%rsp
    1cd6:	83 f8 05             	cmp    $0x5,%eax
    1cd9:	7e 05                	jle    1ce0 <read_six_numbers+0x3c>
    1cdb:	48 83 c4 08          	add    $0x8,%rsp
    1cdf:	c3                   	retq   
    1ce0:	e8 3f ff ff ff       	callq  1c24 <explode_bomb>

0000000000001ce5 <read_line>:
    1ce5:	48 83 ec 08          	sub    $0x8,%rsp
    1ce9:	b8 00 00 00 00       	mov    $0x0,%eax
    1cee:	e8 9d fd ff ff       	callq  1a90 <skip>
    1cf3:	48 85 c0             	test   %rax,%rax
    1cf6:	74 72                	je     1d6a <read_line+0x85>
    1cf8:	8b 35 2e 38 20 00    	mov    0x20382e(%rip),%esi        # 20552c <num_input_strings>
    1cfe:	48 63 c6             	movslq %esi,%rax
    1d01:	48 8d 04 80          	lea    (%rax,%rax,4),%rax
    1d05:	48 c1 e0 04          	shl    $0x4,%rax
    1d09:	48 89 c2             	mov    %rax,%rdx
    1d0c:	48 8d 05 2d 38 20 00 	lea    0x20382d(%rip),%rax        # 205540 <input_strings>
    1d13:	48 01 c2             	add    %rax,%rdx
    1d16:	48 c7 c1 ff ff ff ff 	mov    $0xffffffffffffffff,%rcx
    1d1d:	b8 00 00 00 00       	mov    $0x0,%eax
    1d22:	48 89 d7             	mov    %rdx,%rdi
    1d25:	f2 ae                	repnz scas %es:(%rdi),%al
    1d27:	48 f7 d1             	not    %rcx
    1d2a:	48 83 e9 01          	sub    $0x1,%rcx
    1d2e:	83 f9 4e             	cmp    $0x4e,%ecx
    1d31:	0f 8f ab 00 00 00    	jg     1de2 <read_line+0xfd>
    1d37:	83 e9 01             	sub    $0x1,%ecx
    1d3a:	48 63 c9             	movslq %ecx,%rcx
    1d3d:	48 63 c6             	movslq %esi,%rax
    1d40:	48 8d 04 80          	lea    (%rax,%rax,4),%rax
    1d44:	48 c1 e0 04          	shl    $0x4,%rax
    1d48:	48 89 c7             	mov    %rax,%rdi
    1d4b:	48 8d 05 ee 37 20 00 	lea    0x2037ee(%rip),%rax        # 205540 <input_strings>
    1d52:	48 01 f8             	add    %rdi,%rax
    1d55:	c6 04 08 00          	movb   $0x0,(%rax,%rcx,1)
    1d59:	83 c6 01             	add    $0x1,%esi
    1d5c:	89 35 ca 37 20 00    	mov    %esi,0x2037ca(%rip)        # 20552c <num_input_strings>
    1d62:	48 89 d0             	mov    %rdx,%rax
    1d65:	48 83 c4 08          	add    $0x8,%rsp
    1d69:	c3                   	retq   
    1d6a:	48 8b 05 9f 37 20 00 	mov    0x20379f(%rip),%rax        # 205510 <stdin@@GLIBC_2.2.5>
    1d71:	48 39 05 b8 37 20 00 	cmp    %rax,0x2037b8(%rip)        # 205530 <infile>
    1d78:	74 1b                	je     1d95 <read_line+0xb0>
    1d7a:	48 8d 3d ab 14 00 00 	lea    0x14ab(%rip),%rdi        # 322c <array.3419+0x32c>
    1d81:	e8 da f1 ff ff       	callq  f60 <getenv@plt>
    1d86:	48 85 c0             	test   %rax,%rax
    1d89:	74 20                	je     1dab <read_line+0xc6>
    1d8b:	bf 00 00 00 00       	mov    $0x0,%edi
    1d90:	e8 1b f3 ff ff       	callq  10b0 <exit@plt>
    1d95:	48 8d 3d 72 14 00 00 	lea    0x1472(%rip),%rdi        # 320e <array.3419+0x30e>
    1d9c:	e8 ff f1 ff ff       	callq  fa0 <puts@plt>
    1da1:	bf 08 00 00 00       	mov    $0x8,%edi
    1da6:	e8 05 f3 ff ff       	callq  10b0 <exit@plt>
    1dab:	48 8b 05 5e 37 20 00 	mov    0x20375e(%rip),%rax        # 205510 <stdin@@GLIBC_2.2.5>
    1db2:	48 89 05 77 37 20 00 	mov    %rax,0x203777(%rip)        # 205530 <infile>
    1db9:	b8 00 00 00 00       	mov    $0x0,%eax
    1dbe:	e8 cd fc ff ff       	callq  1a90 <skip>
    1dc3:	48 85 c0             	test   %rax,%rax
    1dc6:	0f 85 2c ff ff ff    	jne    1cf8 <read_line+0x13>
    1dcc:	48 8d 3d 3b 14 00 00 	lea    0x143b(%rip),%rdi        # 320e <array.3419+0x30e>
    1dd3:	e8 c8 f1 ff ff       	callq  fa0 <puts@plt>
    1dd8:	bf 00 00 00 00       	mov    $0x0,%edi
    1ddd:	e8 ce f2 ff ff       	callq  10b0 <exit@plt>
    1de2:	48 8d 3d 4e 14 00 00 	lea    0x144e(%rip),%rdi        # 3237 <array.3419+0x337>
    1de9:	e8 b2 f1 ff ff       	callq  fa0 <puts@plt>
    1dee:	8b 05 38 37 20 00    	mov    0x203738(%rip),%eax        # 20552c <num_input_strings>
    1df4:	8d 50 01             	lea    0x1(%rax),%edx
    1df7:	89 15 2f 37 20 00    	mov    %edx,0x20372f(%rip)        # 20552c <num_input_strings>
    1dfd:	48 98                	cltq   
    1dff:	48 6b c0 50          	imul   $0x50,%rax,%rax
    1e03:	48 8d 15 36 37 20 00 	lea    0x203736(%rip),%rdx        # 205540 <input_strings>
    1e0a:	48 be 2a 2a 2a 74 72 	movabs $0x636e7572742a2a2a,%rsi
    1e11:	75 6e 63 
    1e14:	48 bf 61 74 65 64 2a 	movabs $0x2a2a2a64657461,%rdi
    1e1b:	2a 2a 00 
    1e1e:	48 89 34 02          	mov    %rsi,(%rdx,%rax,1)
    1e22:	48 89 7c 02 08       	mov    %rdi,0x8(%rdx,%rax,1)
    1e27:	e8 f8 fd ff ff       	callq  1c24 <explode_bomb>

0000000000001e2c <phase_defused>:
    1e2c:	48 83 ec 78          	sub    $0x78,%rsp
    1e30:	64 48 8b 04 25 28 00 	mov    %fs:0x28,%rax
    1e37:	00 00 
    1e39:	48 89 44 24 68       	mov    %rax,0x68(%rsp)
    1e3e:	31 c0                	xor    %eax,%eax
    1e40:	c7 44 24 0c 00 00 00 	movl   $0x0,0xc(%rsp)
    1e47:	00 
    1e48:	48 8d 74 24 0c       	lea    0xc(%rsp),%rsi
    1e4d:	bf 01 00 00 00       	mov    $0x1,%edi
    1e52:	e8 80 fc ff ff       	callq  1ad7 <send_msg>
    1e57:	83 3d ce 36 20 00 06 	cmpl   $0x6,0x2036ce(%rip)        # 20552c <num_input_strings>
    1e5e:	74 19                	je     1e79 <phase_defused+0x4d>
    1e60:	48 8b 44 24 68       	mov    0x68(%rsp),%rax
    1e65:	64 48 33 04 25 28 00 	xor    %fs:0x28,%rax
    1e6c:	00 00 
    1e6e:	0f 85 84 00 00 00    	jne    1ef8 <phase_defused+0xcc>
    1e74:	48 83 c4 78          	add    $0x78,%rsp
    1e78:	c3                   	retq   
    1e79:	48 8d 4c 24 08       	lea    0x8(%rsp),%rcx
    1e7e:	48 8d 54 24 04       	lea    0x4(%rsp),%rdx
    1e83:	4c 8d 44 24 10       	lea    0x10(%rsp),%r8
    1e88:	48 8d 35 c3 13 00 00 	lea    0x13c3(%rip),%rsi        # 3252 <array.3419+0x352>
    1e8f:	48 8d 3d 9a 37 20 00 	lea    0x20379a(%rip),%rdi        # 205630 <input_strings+0xf0>
    1e96:	b8 00 00 00 00       	mov    $0x0,%eax
    1e9b:	e8 d0 f1 ff ff       	callq  1070 <__isoc99_sscanf@plt>
    1ea0:	83 f8 03             	cmp    $0x3,%eax
    1ea3:	74 1a                	je     1ebf <phase_defused+0x93>
    1ea5:	48 8d 3d 64 12 00 00 	lea    0x1264(%rip),%rdi        # 3110 <array.3419+0x210>
    1eac:	e8 ef f0 ff ff       	callq  fa0 <puts@plt>
    1eb1:	48 8d 3d 88 12 00 00 	lea    0x1288(%rip),%rdi        # 3140 <array.3419+0x240>
    1eb8:	e8 e3 f0 ff ff       	callq  fa0 <puts@plt>
    1ebd:	eb a1                	jmp    1e60 <phase_defused+0x34>
    1ebf:	48 8d 7c 24 10       	lea    0x10(%rsp),%rdi
    1ec4:	48 8d 35 b5 11 00 00 	lea    0x11b5(%rip),%rsi        # 3080 <array.3419+0x180>
    1ecb:	e8 37 fa ff ff       	callq  1907 <strings_not_equal>
    1ed0:	85 c0                	test   %eax,%eax
    1ed2:	75 d1                	jne    1ea5 <phase_defused+0x79>
    1ed4:	48 8d 3d d5 11 00 00 	lea    0x11d5(%rip),%rdi        # 30b0 <array.3419+0x1b0>
    1edb:	e8 c0 f0 ff ff       	callq  fa0 <puts@plt>
    1ee0:	48 8d 3d f1 11 00 00 	lea    0x11f1(%rip),%rdi        # 30d8 <array.3419+0x1d8>
    1ee7:	e8 b4 f0 ff ff       	callq  fa0 <puts@plt>
    1eec:	b8 00 00 00 00       	mov    $0x0,%eax
    1ef1:	e8 21 f9 ff ff       	callq  1817 <secret_phase>
    1ef6:	eb ad                	jmp    1ea5 <phase_defused+0x79>
    1ef8:	e8 c3 f0 ff ff       	callq  fc0 <__stack_chk_fail@plt>

0000000000001efd <rio_readinitb>:
    1efd:	89 37                	mov    %esi,(%rdi)
    1eff:	c7 47 04 00 00 00 00 	movl   $0x0,0x4(%rdi)
    1f06:	48 8d 47 10          	lea    0x10(%rdi),%rax
    1f0a:	48 89 47 08          	mov    %rax,0x8(%rdi)
    1f0e:	c3                   	retq   

0000000000001f0f <sigalrm_handler>:
    1f0f:	48 83 ec 08          	sub    $0x8,%rsp
    1f13:	b9 00 00 00 00       	mov    $0x0,%ecx
    1f18:	48 8d 15 99 13 00 00 	lea    0x1399(%rip),%rdx        # 32b8 <array.3419+0x3b8>
    1f1f:	be 01 00 00 00       	mov    $0x1,%esi
    1f24:	48 8b 3d f5 35 20 00 	mov    0x2035f5(%rip),%rdi        # 205520 <stderr@@GLIBC_2.2.5>
    1f2b:	b8 00 00 00 00       	mov    $0x0,%eax
    1f30:	e8 9b f1 ff ff       	callq  10d0 <__fprintf_chk@plt>
    1f35:	bf 01 00 00 00       	mov    $0x1,%edi
    1f3a:	e8 71 f1 ff ff       	callq  10b0 <exit@plt>

0000000000001f3f <rio_writen>:
    1f3f:	41 55                	push   %r13
    1f41:	41 54                	push   %r12
    1f43:	55                   	push   %rbp
    1f44:	53                   	push   %rbx
    1f45:	48 83 ec 08          	sub    $0x8,%rsp
    1f49:	41 89 fc             	mov    %edi,%r12d
    1f4c:	48 89 f5             	mov    %rsi,%rbp
    1f4f:	49 89 d5             	mov    %rdx,%r13
    1f52:	48 89 d3             	mov    %rdx,%rbx
    1f55:	eb 06                	jmp    1f5d <rio_writen+0x1e>
    1f57:	48 29 c3             	sub    %rax,%rbx
    1f5a:	48 01 c5             	add    %rax,%rbp
    1f5d:	48 85 db             	test   %rbx,%rbx
    1f60:	74 24                	je     1f86 <rio_writen+0x47>
    1f62:	48 89 da             	mov    %rbx,%rdx
    1f65:	48 89 ee             	mov    %rbp,%rsi
    1f68:	44 89 e7             	mov    %r12d,%edi
    1f6b:	e8 40 f0 ff ff       	callq  fb0 <write@plt>
    1f70:	48 85 c0             	test   %rax,%rax
    1f73:	7f e2                	jg     1f57 <rio_writen+0x18>
    1f75:	e8 06 f0 ff ff       	callq  f80 <__errno_location@plt>
    1f7a:	83 38 04             	cmpl   $0x4,(%rax)
    1f7d:	75 15                	jne    1f94 <rio_writen+0x55>
    1f7f:	b8 00 00 00 00       	mov    $0x0,%eax
    1f84:	eb d1                	jmp    1f57 <rio_writen+0x18>
    1f86:	4c 89 e8             	mov    %r13,%rax
    1f89:	48 83 c4 08          	add    $0x8,%rsp
    1f8d:	5b                   	pop    %rbx
    1f8e:	5d                   	pop    %rbp
    1f8f:	41 5c                	pop    %r12
    1f91:	41 5d                	pop    %r13
    1f93:	c3                   	retq   
    1f94:	48 c7 c0 ff ff ff ff 	mov    $0xffffffffffffffff,%rax
    1f9b:	eb ec                	jmp    1f89 <rio_writen+0x4a>

0000000000001f9d <rio_read>:
    1f9d:	41 55                	push   %r13
    1f9f:	41 54                	push   %r12
    1fa1:	55                   	push   %rbp
    1fa2:	53                   	push   %rbx
    1fa3:	48 83 ec 08          	sub    $0x8,%rsp
    1fa7:	48 89 fb             	mov    %rdi,%rbx
    1faa:	49 89 f5             	mov    %rsi,%r13
    1fad:	49 89 d4             	mov    %rdx,%r12
    1fb0:	eb 0a                	jmp    1fbc <rio_read+0x1f>
    1fb2:	e8 c9 ef ff ff       	callq  f80 <__errno_location@plt>
    1fb7:	83 38 04             	cmpl   $0x4,(%rax)
    1fba:	75 5c                	jne    2018 <rio_read+0x7b>
    1fbc:	8b 6b 04             	mov    0x4(%rbx),%ebp
    1fbf:	85 ed                	test   %ebp,%ebp
    1fc1:	7f 24                	jg     1fe7 <rio_read+0x4a>
    1fc3:	48 8d 6b 10          	lea    0x10(%rbx),%rbp
    1fc7:	8b 3b                	mov    (%rbx),%edi
    1fc9:	ba 00 20 00 00       	mov    $0x2000,%edx
    1fce:	48 89 ee             	mov    %rbp,%rsi
    1fd1:	e8 1a f0 ff ff       	callq  ff0 <read@plt>
    1fd6:	89 43 04             	mov    %eax,0x4(%rbx)
    1fd9:	85 c0                	test   %eax,%eax
    1fdb:	78 d5                	js     1fb2 <rio_read+0x15>
    1fdd:	85 c0                	test   %eax,%eax
    1fdf:	74 40                	je     2021 <rio_read+0x84>
    1fe1:	48 89 6b 08          	mov    %rbp,0x8(%rbx)
    1fe5:	eb d5                	jmp    1fbc <rio_read+0x1f>
    1fe7:	89 e8                	mov    %ebp,%eax
    1fe9:	4c 39 e0             	cmp    %r12,%rax
    1fec:	72 03                	jb     1ff1 <rio_read+0x54>
    1fee:	44 89 e5             	mov    %r12d,%ebp
    1ff1:	4c 63 e5             	movslq %ebp,%r12
    1ff4:	48 8b 73 08          	mov    0x8(%rbx),%rsi
    1ff8:	4c 89 e2             	mov    %r12,%rdx
    1ffb:	4c 89 ef             	mov    %r13,%rdi
    1ffe:	e8 4d f0 ff ff       	callq  1050 <memcpy@plt>
    2003:	4c 01 63 08          	add    %r12,0x8(%rbx)
    2007:	29 6b 04             	sub    %ebp,0x4(%rbx)
    200a:	4c 89 e0             	mov    %r12,%rax
    200d:	48 83 c4 08          	add    $0x8,%rsp
    2011:	5b                   	pop    %rbx
    2012:	5d                   	pop    %rbp
    2013:	41 5c                	pop    %r12
    2015:	41 5d                	pop    %r13
    2017:	c3                   	retq   
    2018:	48 c7 c0 ff ff ff ff 	mov    $0xffffffffffffffff,%rax
    201f:	eb ec                	jmp    200d <rio_read+0x70>
    2021:	b8 00 00 00 00       	mov    $0x0,%eax
    2026:	eb e5                	jmp    200d <rio_read+0x70>

0000000000002028 <rio_readlineb>:
    2028:	41 55                	push   %r13
    202a:	41 54                	push   %r12
    202c:	55                   	push   %rbp
    202d:	53                   	push   %rbx
    202e:	48 83 ec 18          	sub    $0x18,%rsp
    2032:	49 89 fd             	mov    %rdi,%r13
    2035:	48 89 f5             	mov    %rsi,%rbp
    2038:	49 89 d4             	mov    %rdx,%r12
    203b:	64 48 8b 04 25 28 00 	mov    %fs:0x28,%rax
    2042:	00 00 
    2044:	48 89 44 24 08       	mov    %rax,0x8(%rsp)
    2049:	31 c0                	xor    %eax,%eax
    204b:	bb 01 00 00 00       	mov    $0x1,%ebx
    2050:	4c 39 e3             	cmp    %r12,%rbx
    2053:	73 47                	jae    209c <rio_readlineb+0x74>
    2055:	48 8d 74 24 07       	lea    0x7(%rsp),%rsi
    205a:	ba 01 00 00 00       	mov    $0x1,%edx
    205f:	4c 89 ef             	mov    %r13,%rdi
    2062:	e8 36 ff ff ff       	callq  1f9d <rio_read>
    2067:	83 f8 01             	cmp    $0x1,%eax
    206a:	75 1c                	jne    2088 <rio_readlineb+0x60>
    206c:	48 8d 45 01          	lea    0x1(%rbp),%rax
    2070:	0f b6 54 24 07       	movzbl 0x7(%rsp),%edx
    2075:	88 55 00             	mov    %dl,0x0(%rbp)
    2078:	80 7c 24 07 0a       	cmpb   $0xa,0x7(%rsp)
    207d:	74 1a                	je     2099 <rio_readlineb+0x71>
    207f:	48 83 c3 01          	add    $0x1,%rbx
    2083:	48 89 c5             	mov    %rax,%rbp
    2086:	eb c8                	jmp    2050 <rio_readlineb+0x28>
    2088:	85 c0                	test   %eax,%eax
    208a:	75 32                	jne    20be <rio_readlineb+0x96>
    208c:	48 83 fb 01          	cmp    $0x1,%rbx
    2090:	75 0a                	jne    209c <rio_readlineb+0x74>
    2092:	b8 00 00 00 00       	mov    $0x0,%eax
    2097:	eb 0a                	jmp    20a3 <rio_readlineb+0x7b>
    2099:	48 89 c5             	mov    %rax,%rbp
    209c:	c6 45 00 00          	movb   $0x0,0x0(%rbp)
    20a0:	48 89 d8             	mov    %rbx,%rax
    20a3:	48 8b 4c 24 08       	mov    0x8(%rsp),%rcx
    20a8:	64 48 33 0c 25 28 00 	xor    %fs:0x28,%rcx
    20af:	00 00 
    20b1:	75 14                	jne    20c7 <rio_readlineb+0x9f>
    20b3:	48 83 c4 18          	add    $0x18,%rsp
    20b7:	5b                   	pop    %rbx
    20b8:	5d                   	pop    %rbp
    20b9:	41 5c                	pop    %r12
    20bb:	41 5d                	pop    %r13
    20bd:	c3                   	retq   
    20be:	48 c7 c0 ff ff ff ff 	mov    $0xffffffffffffffff,%rax
    20c5:	eb dc                	jmp    20a3 <rio_readlineb+0x7b>
    20c7:	e8 f4 ee ff ff       	callq  fc0 <__stack_chk_fail@plt>

00000000000020cc <urlencode>:
    20cc:	41 54                	push   %r12
    20ce:	55                   	push   %rbp
    20cf:	53                   	push   %rbx
    20d0:	48 83 ec 10          	sub    $0x10,%rsp
    20d4:	48 89 fb             	mov    %rdi,%rbx
    20d7:	48 89 f5             	mov    %rsi,%rbp
    20da:	64 48 8b 04 25 28 00 	mov    %fs:0x28,%rax
    20e1:	00 00 
    20e3:	48 89 44 24 08       	mov    %rax,0x8(%rsp)
    20e8:	31 c0                	xor    %eax,%eax
    20ea:	48 c7 c1 ff ff ff ff 	mov    $0xffffffffffffffff,%rcx
    20f1:	f2 ae                	repnz scas %es:(%rdi),%al
    20f3:	48 89 ce             	mov    %rcx,%rsi
    20f6:	48 f7 d6             	not    %rsi
    20f9:	8d 46 ff             	lea    -0x1(%rsi),%eax
    20fc:	eb 0f                	jmp    210d <urlencode+0x41>
    20fe:	44 88 45 00          	mov    %r8b,0x0(%rbp)
    2102:	48 8d 6d 01          	lea    0x1(%rbp),%rbp
    2106:	48 83 c3 01          	add    $0x1,%rbx
    210a:	44 89 e0             	mov    %r12d,%eax
    210d:	44 8d 60 ff          	lea    -0x1(%rax),%r12d
    2111:	85 c0                	test   %eax,%eax
    2113:	0f 84 a8 00 00 00    	je     21c1 <urlencode+0xf5>
    2119:	44 0f b6 03          	movzbl (%rbx),%r8d
    211d:	41 80 f8 2a          	cmp    $0x2a,%r8b
    2121:	0f 94 c2             	sete   %dl
    2124:	41 80 f8 2d          	cmp    $0x2d,%r8b
    2128:	0f 94 c0             	sete   %al
    212b:	08 c2                	or     %al,%dl
    212d:	75 cf                	jne    20fe <urlencode+0x32>
    212f:	41 80 f8 2e          	cmp    $0x2e,%r8b
    2133:	74 c9                	je     20fe <urlencode+0x32>
    2135:	41 80 f8 5f          	cmp    $0x5f,%r8b
    2139:	74 c3                	je     20fe <urlencode+0x32>
    213b:	41 8d 40 d0          	lea    -0x30(%r8),%eax
    213f:	3c 09                	cmp    $0x9,%al
    2141:	76 bb                	jbe    20fe <urlencode+0x32>
    2143:	41 8d 40 bf          	lea    -0x41(%r8),%eax
    2147:	3c 19                	cmp    $0x19,%al
    2149:	76 b3                	jbe    20fe <urlencode+0x32>
    214b:	41 8d 40 9f          	lea    -0x61(%r8),%eax
    214f:	3c 19                	cmp    $0x19,%al
    2151:	76 ab                	jbe    20fe <urlencode+0x32>
    2153:	41 80 f8 20          	cmp    $0x20,%r8b
    2157:	74 56                	je     21af <urlencode+0xe3>
    2159:	41 8d 40 e0          	lea    -0x20(%r8),%eax
    215d:	3c 5f                	cmp    $0x5f,%al
    215f:	0f 96 c2             	setbe  %dl
    2162:	41 80 f8 09          	cmp    $0x9,%r8b
    2166:	0f 94 c0             	sete   %al
    2169:	08 c2                	or     %al,%dl
    216b:	74 4f                	je     21bc <urlencode+0xf0>
    216d:	48 89 e7             	mov    %rsp,%rdi
    2170:	45 0f b6 c0          	movzbl %r8b,%r8d
    2174:	48 8d 0d f5 11 00 00 	lea    0x11f5(%rip),%rcx        # 3370 <array.3419+0x470>
    217b:	ba 08 00 00 00       	mov    $0x8,%edx
    2180:	be 01 00 00 00       	mov    $0x1,%esi
    2185:	b8 00 00 00 00       	mov    $0x0,%eax
    218a:	e8 71 ef ff ff       	callq  1100 <__sprintf_chk@plt>
    218f:	0f b6 04 24          	movzbl (%rsp),%eax
    2193:	88 45 00             	mov    %al,0x0(%rbp)
    2196:	0f b6 44 24 01       	movzbl 0x1(%rsp),%eax
    219b:	88 45 01             	mov    %al,0x1(%rbp)
    219e:	0f b6 44 24 02       	movzbl 0x2(%rsp),%eax
    21a3:	88 45 02             	mov    %al,0x2(%rbp)
    21a6:	48 8d 6d 03          	lea    0x3(%rbp),%rbp
    21aa:	e9 57 ff ff ff       	jmpq   2106 <urlencode+0x3a>
    21af:	c6 45 00 2b          	movb   $0x2b,0x0(%rbp)
    21b3:	48 8d 6d 01          	lea    0x1(%rbp),%rbp
    21b7:	e9 4a ff ff ff       	jmpq   2106 <urlencode+0x3a>
    21bc:	b8 ff ff ff ff       	mov    $0xffffffff,%eax
    21c1:	48 8b 74 24 08       	mov    0x8(%rsp),%rsi
    21c6:	64 48 33 34 25 28 00 	xor    %fs:0x28,%rsi
    21cd:	00 00 
    21cf:	75 09                	jne    21da <urlencode+0x10e>
    21d1:	48 83 c4 10          	add    $0x10,%rsp
    21d5:	5b                   	pop    %rbx
    21d6:	5d                   	pop    %rbp
    21d7:	41 5c                	pop    %r12
    21d9:	c3                   	retq   
    21da:	e8 e1 ed ff ff       	callq  fc0 <__stack_chk_fail@plt>

00000000000021df <submitr>:
    21df:	41 57                	push   %r15
    21e1:	41 56                	push   %r14
    21e3:	41 55                	push   %r13
    21e5:	41 54                	push   %r12
    21e7:	55                   	push   %rbp
    21e8:	53                   	push   %rbx
    21e9:	48 81 ec 68 a0 00 00 	sub    $0xa068,%rsp
    21f0:	49 89 fd             	mov    %rdi,%r13
    21f3:	89 74 24 1c          	mov    %esi,0x1c(%rsp)
    21f7:	48 89 54 24 08       	mov    %rdx,0x8(%rsp)
    21fc:	49 89 ce             	mov    %rcx,%r14
    21ff:	4c 89 44 24 10       	mov    %r8,0x10(%rsp)
    2204:	4d 89 cf             	mov    %r9,%r15
    2207:	48 8b ac 24 a0 a0 00 	mov    0xa0a0(%rsp),%rbp
    220e:	00 
    220f:	64 48 8b 04 25 28 00 	mov    %fs:0x28,%rax
    2216:	00 00 
    2218:	48 89 84 24 58 a0 00 	mov    %rax,0xa058(%rsp)
    221f:	00 
    2220:	31 c0                	xor    %eax,%eax
    2222:	c7 44 24 2c 00 00 00 	movl   $0x0,0x2c(%rsp)
    2229:	00 
    222a:	ba 00 00 00 00       	mov    $0x0,%edx
    222f:	be 01 00 00 00       	mov    $0x1,%esi
    2234:	bf 02 00 00 00       	mov    $0x2,%edi
    2239:	e8 d2 ee ff ff       	callq  1110 <socket@plt>
    223e:	85 c0                	test   %eax,%eax
    2240:	0f 88 ae 02 00 00    	js     24f4 <submitr+0x315>
    2246:	89 c3                	mov    %eax,%ebx
    2248:	4c 89 ef             	mov    %r13,%rdi
    224b:	e8 d0 ed ff ff       	callq  1020 <gethostbyname@plt>
    2250:	48 85 c0             	test   %rax,%rax
    2253:	0f 84 e7 02 00 00    	je     2540 <submitr+0x361>
    2259:	4c 8d 64 24 30       	lea    0x30(%rsp),%r12
    225e:	48 c7 44 24 32 00 00 	movq   $0x0,0x32(%rsp)
    2265:	00 00 
    2267:	c7 44 24 3a 00 00 00 	movl   $0x0,0x3a(%rsp)
    226e:	00 
    226f:	66 c7 44 24 3e 00 00 	movw   $0x0,0x3e(%rsp)
    2276:	66 c7 44 24 30 02 00 	movw   $0x2,0x30(%rsp)
    227d:	48 63 50 14          	movslq 0x14(%rax),%rdx
    2281:	48 8b 40 18          	mov    0x18(%rax),%rax
    2285:	48 8b 30             	mov    (%rax),%rsi
    2288:	48 8d 7c 24 34       	lea    0x34(%rsp),%rdi
    228d:	b9 0c 00 00 00       	mov    $0xc,%ecx
    2292:	e8 99 ed ff ff       	callq  1030 <__memmove_chk@plt>
    2297:	0f b7 44 24 1c       	movzwl 0x1c(%rsp),%eax
    229c:	66 c1 c8 08          	ror    $0x8,%ax
    22a0:	66 89 44 24 32       	mov    %ax,0x32(%rsp)
    22a5:	ba 10 00 00 00       	mov    $0x10,%edx
    22aa:	4c 89 e6             	mov    %r12,%rsi
    22ad:	89 df                	mov    %ebx,%edi
    22af:	e8 0c ee ff ff       	callq  10c0 <connect@plt>
    22b4:	85 c0                	test   %eax,%eax
    22b6:	0f 88 fa 02 00 00    	js     25b6 <submitr+0x3d7>
    22bc:	48 c7 c6 ff ff ff ff 	mov    $0xffffffffffffffff,%rsi
    22c3:	b8 00 00 00 00       	mov    $0x0,%eax
    22c8:	48 89 f1             	mov    %rsi,%rcx
    22cb:	4c 89 ff             	mov    %r15,%rdi
    22ce:	f2 ae                	repnz scas %es:(%rdi),%al
    22d0:	48 89 ca             	mov    %rcx,%rdx
    22d3:	48 f7 d2             	not    %rdx
    22d6:	48 89 f1             	mov    %rsi,%rcx
    22d9:	48 8b 7c 24 08       	mov    0x8(%rsp),%rdi
    22de:	f2 ae                	repnz scas %es:(%rdi),%al
    22e0:	48 f7 d1             	not    %rcx
    22e3:	49 89 c8             	mov    %rcx,%r8
    22e6:	48 89 f1             	mov    %rsi,%rcx
    22e9:	4c 89 f7             	mov    %r14,%rdi
    22ec:	f2 ae                	repnz scas %es:(%rdi),%al
    22ee:	48 f7 d1             	not    %rcx
    22f1:	4d 8d 44 08 fe       	lea    -0x2(%r8,%rcx,1),%r8
    22f6:	48 89 f1             	mov    %rsi,%rcx
    22f9:	48 8b 7c 24 10       	mov    0x10(%rsp),%rdi
    22fe:	f2 ae                	repnz scas %es:(%rdi),%al
    2300:	48 89 c8             	mov    %rcx,%rax
    2303:	48 f7 d0             	not    %rax
    2306:	49 8d 4c 00 ff       	lea    -0x1(%r8,%rax,1),%rcx
    230b:	48 8d 44 52 fd       	lea    -0x3(%rdx,%rdx,2),%rax
    2310:	48 8d 84 01 80 00 00 	lea    0x80(%rcx,%rax,1),%rax
    2317:	00 
    2318:	48 3d 00 20 00 00    	cmp    $0x2000,%rax
    231e:	0f 87 fa 02 00 00    	ja     261e <submitr+0x43f>
    2324:	48 8d b4 24 50 40 00 	lea    0x4050(%rsp),%rsi
    232b:	00 
    232c:	b9 00 04 00 00       	mov    $0x400,%ecx
    2331:	b8 00 00 00 00       	mov    $0x0,%eax
    2336:	48 89 f7             	mov    %rsi,%rdi
    2339:	f3 48 ab             	rep stos %rax,%es:(%rdi)
    233c:	4c 89 ff             	mov    %r15,%rdi
    233f:	e8 88 fd ff ff       	callq  20cc <urlencode>
    2344:	85 c0                	test   %eax,%eax
    2346:	0f 88 45 03 00 00    	js     2691 <submitr+0x4b2>
    234c:	4c 8d a4 24 50 20 00 	lea    0x2050(%rsp),%r12
    2353:	00 
    2354:	48 83 ec 08          	sub    $0x8,%rsp
    2358:	41 55                	push   %r13
    235a:	48 8d 84 24 60 40 00 	lea    0x4060(%rsp),%rax
    2361:	00 
    2362:	50                   	push   %rax
    2363:	41 56                	push   %r14
    2365:	4c 8b 4c 24 30       	mov    0x30(%rsp),%r9
    236a:	4c 8b 44 24 28       	mov    0x28(%rsp),%r8
    236f:	48 8d 0d 6a 0f 00 00 	lea    0xf6a(%rip),%rcx        # 32e0 <array.3419+0x3e0>
    2376:	ba 00 20 00 00       	mov    $0x2000,%edx
    237b:	be 01 00 00 00       	mov    $0x1,%esi
    2380:	4c 89 e7             	mov    %r12,%rdi
    2383:	b8 00 00 00 00       	mov    $0x0,%eax
    2388:	e8 73 ed ff ff       	callq  1100 <__sprintf_chk@plt>
    238d:	48 c7 c1 ff ff ff ff 	mov    $0xffffffffffffffff,%rcx
    2394:	b8 00 00 00 00       	mov    $0x0,%eax
    2399:	4c 89 e7             	mov    %r12,%rdi
    239c:	f2 ae                	repnz scas %es:(%rdi),%al
    239e:	48 89 ca             	mov    %rcx,%rdx
    23a1:	48 f7 d2             	not    %rdx
    23a4:	48 8d 52 ff          	lea    -0x1(%rdx),%rdx
    23a8:	48 83 c4 20          	add    $0x20,%rsp
    23ac:	4c 89 e6             	mov    %r12,%rsi
    23af:	89 df                	mov    %ebx,%edi
    23b1:	e8 89 fb ff ff       	callq  1f3f <rio_writen>
    23b6:	48 85 c0             	test   %rax,%rax
    23b9:	0f 88 5d 03 00 00    	js     271c <submitr+0x53d>
    23bf:	4c 8d 64 24 40       	lea    0x40(%rsp),%r12
    23c4:	89 de                	mov    %ebx,%esi
    23c6:	4c 89 e7             	mov    %r12,%rdi
    23c9:	e8 2f fb ff ff       	callq  1efd <rio_readinitb>
    23ce:	48 8d b4 24 50 20 00 	lea    0x2050(%rsp),%rsi
    23d5:	00 
    23d6:	ba 00 20 00 00       	mov    $0x2000,%edx
    23db:	4c 89 e7             	mov    %r12,%rdi
    23de:	e8 45 fc ff ff       	callq  2028 <rio_readlineb>
    23e3:	48 85 c0             	test   %rax,%rax
    23e6:	0f 8e 9c 03 00 00    	jle    2788 <submitr+0x5a9>
    23ec:	48 8d 4c 24 2c       	lea    0x2c(%rsp),%rcx
    23f1:	48 8d 94 24 50 60 00 	lea    0x6050(%rsp),%rdx
    23f8:	00 
    23f9:	48 8d bc 24 50 20 00 	lea    0x2050(%rsp),%rdi
    2400:	00 
    2401:	4c 8d 84 24 50 80 00 	lea    0x8050(%rsp),%r8
    2408:	00 
    2409:	48 8d 35 67 0f 00 00 	lea    0xf67(%rip),%rsi        # 3377 <array.3419+0x477>
    2410:	b8 00 00 00 00       	mov    $0x0,%eax
    2415:	e8 56 ec ff ff       	callq  1070 <__isoc99_sscanf@plt>
    241a:	48 8d b4 24 50 20 00 	lea    0x2050(%rsp),%rsi
    2421:	00 
    2422:	b9 03 00 00 00       	mov    $0x3,%ecx
    2427:	48 8d 3d 60 0f 00 00 	lea    0xf60(%rip),%rdi        # 338e <array.3419+0x48e>
    242e:	f3 a6                	repz cmpsb %es:(%rdi),%ds:(%rsi)
    2430:	0f 97 c0             	seta   %al
    2433:	1c 00                	sbb    $0x0,%al
    2435:	84 c0                	test   %al,%al
    2437:	0f 84 cb 03 00 00    	je     2808 <submitr+0x629>
    243d:	48 8d b4 24 50 20 00 	lea    0x2050(%rsp),%rsi
    2444:	00 
    2445:	48 8d 7c 24 40       	lea    0x40(%rsp),%rdi
    244a:	ba 00 20 00 00       	mov    $0x2000,%edx
    244f:	e8 d4 fb ff ff       	callq  2028 <rio_readlineb>
    2454:	48 85 c0             	test   %rax,%rax
    2457:	7f c1                	jg     241a <submitr+0x23b>
    2459:	48 b8 45 72 72 6f 72 	movabs $0x43203a726f727245,%rax
    2460:	3a 20 43 
    2463:	48 ba 6c 69 65 6e 74 	movabs $0x6e7520746e65696c,%rdx
    246a:	20 75 6e 
    246d:	48 89 45 00          	mov    %rax,0x0(%rbp)
    2471:	48 89 55 08          	mov    %rdx,0x8(%rbp)
    2475:	48 b8 61 62 6c 65 20 	movabs $0x206f7420656c6261,%rax
    247c:	74 6f 20 
    247f:	48 ba 72 65 61 64 20 	movabs $0x6165682064616572,%rdx
    2486:	68 65 61 
    2489:	48 89 45 10          	mov    %rax,0x10(%rbp)
    248d:	48 89 55 18          	mov    %rdx,0x18(%rbp)
    2491:	48 b8 64 65 72 73 20 	movabs $0x6f72662073726564,%rax
    2498:	66 72 6f 
    249b:	48 ba 6d 20 41 75 74 	movabs $0x616c6f747541206d,%rdx
    24a2:	6f 6c 61 
    24a5:	48 89 45 20          	mov    %rax,0x20(%rbp)
    24a9:	48 89 55 28          	mov    %rdx,0x28(%rbp)
    24ad:	48 b8 62 20 73 65 72 	movabs $0x7265767265732062,%rax
    24b4:	76 65 72 
    24b7:	48 89 45 30          	mov    %rax,0x30(%rbp)
    24bb:	c6 45 38 00          	movb   $0x0,0x38(%rbp)
    24bf:	89 df                	mov    %ebx,%edi
    24c1:	e8 1a eb ff ff       	callq  fe0 <close@plt>
    24c6:	b8 ff ff ff ff       	mov    $0xffffffff,%eax
    24cb:	48 8b 9c 24 58 a0 00 	mov    0xa058(%rsp),%rbx
    24d2:	00 
    24d3:	64 48 33 1c 25 28 00 	xor    %fs:0x28,%rbx
    24da:	00 00 
    24dc:	0f 85 96 04 00 00    	jne    2978 <submitr+0x799>
    24e2:	48 81 c4 68 a0 00 00 	add    $0xa068,%rsp
    24e9:	5b                   	pop    %rbx
    24ea:	5d                   	pop    %rbp
    24eb:	41 5c                	pop    %r12
    24ed:	41 5d                	pop    %r13
    24ef:	41 5e                	pop    %r14
    24f1:	41 5f                	pop    %r15
    24f3:	c3                   	retq   
    24f4:	48 b8 45 72 72 6f 72 	movabs $0x43203a726f727245,%rax
    24fb:	3a 20 43 
    24fe:	48 ba 6c 69 65 6e 74 	movabs $0x6e7520746e65696c,%rdx
    2505:	20 75 6e 
    2508:	48 89 45 00          	mov    %rax,0x0(%rbp)
    250c:	48 89 55 08          	mov    %rdx,0x8(%rbp)
    2510:	48 b8 61 62 6c 65 20 	movabs $0x206f7420656c6261,%rax
    2517:	74 6f 20 
    251a:	48 ba 63 72 65 61 74 	movabs $0x7320657461657263,%rdx
    2521:	65 20 73 
    2524:	48 89 45 10          	mov    %rax,0x10(%rbp)
    2528:	48 89 55 18          	mov    %rdx,0x18(%rbp)
    252c:	c7 45 20 6f 63 6b 65 	movl   $0x656b636f,0x20(%rbp)
    2533:	66 c7 45 24 74 00    	movw   $0x74,0x24(%rbp)
    2539:	b8 ff ff ff ff       	mov    $0xffffffff,%eax
    253e:	eb 8b                	jmp    24cb <submitr+0x2ec>
    2540:	48 b8 45 72 72 6f 72 	movabs $0x44203a726f727245,%rax
    2547:	3a 20 44 
    254a:	48 ba 4e 53 20 69 73 	movabs $0x6e7520736920534e,%rdx
    2551:	20 75 6e 
    2554:	48 89 45 00          	mov    %rax,0x0(%rbp)
    2558:	48 89 55 08          	mov    %rdx,0x8(%rbp)
    255c:	48 b8 61 62 6c 65 20 	movabs $0x206f7420656c6261,%rax
    2563:	74 6f 20 
    2566:	48 ba 72 65 73 6f 6c 	movabs $0x2065766c6f736572,%rdx
    256d:	76 65 20 
    2570:	48 89 45 10          	mov    %rax,0x10(%rbp)
    2574:	48 89 55 18          	mov    %rdx,0x18(%rbp)
    2578:	48 b8 41 75 74 6f 6c 	movabs $0x2062616c6f747541,%rax
    257f:	61 62 20 
    2582:	48 ba 73 65 72 76 65 	movabs $0x6120726576726573,%rdx
    2589:	72 20 61 
    258c:	48 89 45 20          	mov    %rax,0x20(%rbp)
    2590:	48 89 55 28          	mov    %rdx,0x28(%rbp)
    2594:	c7 45 30 64 64 72 65 	movl   $0x65726464,0x30(%rbp)
    259b:	66 c7 45 34 73 73    	movw   $0x7373,0x34(%rbp)
    25a1:	c6 45 36 00          	movb   $0x0,0x36(%rbp)
    25a5:	89 df                	mov    %ebx,%edi
    25a7:	e8 34 ea ff ff       	callq  fe0 <close@plt>
    25ac:	b8 ff ff ff ff       	mov    $0xffffffff,%eax
    25b1:	e9 15 ff ff ff       	jmpq   24cb <submitr+0x2ec>
    25b6:	48 b8 45 72 72 6f 72 	movabs $0x55203a726f727245,%rax
    25bd:	3a 20 55 
    25c0:	48 ba 6e 61 62 6c 65 	movabs $0x6f7420656c62616e,%rdx
    25c7:	20 74 6f 
    25ca:	48 89 45 00          	mov    %rax,0x0(%rbp)
    25ce:	48 89 55 08          	mov    %rdx,0x8(%rbp)
    25d2:	48 b8 20 63 6f 6e 6e 	movabs $0x7463656e6e6f6320,%rax
    25d9:	65 63 74 
    25dc:	48 ba 20 74 6f 20 74 	movabs $0x20656874206f7420,%rdx
    25e3:	68 65 20 
    25e6:	48 89 45 10          	mov    %rax,0x10(%rbp)
    25ea:	48 89 55 18          	mov    %rdx,0x18(%rbp)
    25ee:	48 b8 41 75 74 6f 6c 	movabs $0x2062616c6f747541,%rax
    25f5:	61 62 20 
    25f8:	48 89 45 20          	mov    %rax,0x20(%rbp)
    25fc:	c7 45 28 73 65 72 76 	movl   $0x76726573,0x28(%rbp)
    2603:	66 c7 45 2c 65 72    	movw   $0x7265,0x2c(%rbp)
    2609:	c6 45 2e 00          	movb   $0x0,0x2e(%rbp)
    260d:	89 df                	mov    %ebx,%edi
    260f:	e8 cc e9 ff ff       	callq  fe0 <close@plt>
    2614:	b8 ff ff ff ff       	mov    $0xffffffff,%eax
    2619:	e9 ad fe ff ff       	jmpq   24cb <submitr+0x2ec>
    261e:	48 b8 45 72 72 6f 72 	movabs $0x52203a726f727245,%rax
    2625:	3a 20 52 
    2628:	48 ba 65 73 75 6c 74 	movabs $0x747320746c757365,%rdx
    262f:	20 73 74 
    2632:	48 89 45 00          	mov    %rax,0x0(%rbp)
    2636:	48 89 55 08          	mov    %rdx,0x8(%rbp)
    263a:	48 b8 72 69 6e 67 20 	movabs $0x6f6f7420676e6972,%rax
    2641:	74 6f 6f 
    2644:	48 ba 20 6c 61 72 67 	movabs $0x202e656772616c20,%rdx
    264b:	65 2e 20 
    264e:	48 89 45 10          	mov    %rax,0x10(%rbp)
    2652:	48 89 55 18          	mov    %rdx,0x18(%rbp)
    2656:	48 b8 49 6e 63 72 65 	movabs $0x6573616572636e49,%rax
    265d:	61 73 65 
    2660:	48 ba 20 53 55 42 4d 	movabs $0x5254494d42555320,%rdx
    2667:	49 54 52 
    266a:	48 89 45 20          	mov    %rax,0x20(%rbp)
    266e:	48 89 55 28          	mov    %rdx,0x28(%rbp)
    2672:	48 b8 5f 4d 41 58 42 	movabs $0x46554258414d5f,%rax
    2679:	55 46 00 
    267c:	48 89 45 30          	mov    %rax,0x30(%rbp)
    2680:	89 df                	mov    %ebx,%edi
    2682:	e8 59 e9 ff ff       	callq  fe0 <close@plt>
    2687:	b8 ff ff ff ff       	mov    $0xffffffff,%eax
    268c:	e9 3a fe ff ff       	jmpq   24cb <submitr+0x2ec>
    2691:	48 b8 45 72 72 6f 72 	movabs $0x52203a726f727245,%rax
    2698:	3a 20 52 
    269b:	48 ba 65 73 75 6c 74 	movabs $0x747320746c757365,%rdx
    26a2:	20 73 74 
    26a5:	48 89 45 00          	mov    %rax,0x0(%rbp)
    26a9:	48 89 55 08          	mov    %rdx,0x8(%rbp)
    26ad:	48 b8 72 69 6e 67 20 	movabs $0x6e6f6320676e6972,%rax
    26b4:	63 6f 6e 
    26b7:	48 ba 74 61 69 6e 73 	movabs $0x6e6120736e696174,%rdx
    26be:	20 61 6e 
    26c1:	48 89 45 10          	mov    %rax,0x10(%rbp)
    26c5:	48 89 55 18          	mov    %rdx,0x18(%rbp)
    26c9:	48 b8 20 69 6c 6c 65 	movabs $0x6c6167656c6c6920,%rax
    26d0:	67 61 6c 
    26d3:	48 ba 20 6f 72 20 75 	movabs $0x72706e7520726f20,%rdx
    26da:	6e 70 72 
    26dd:	48 89 45 20          	mov    %rax,0x20(%rbp)
    26e1:	48 89 55 28          	mov    %rdx,0x28(%rbp)
    26e5:	48 b8 69 6e 74 61 62 	movabs $0x20656c6261746e69,%rax
    26ec:	6c 65 20 
    26ef:	48 ba 63 68 61 72 61 	movabs $0x6574636172616863,%rdx
    26f6:	63 74 65 
    26f9:	48 89 45 30          	mov    %rax,0x30(%rbp)
    26fd:	48 89 55 38          	mov    %rdx,0x38(%rbp)
    2701:	66 c7 45 40 72 2e    	movw   $0x2e72,0x40(%rbp)
    2707:	c6 45 42 00          	movb   $0x0,0x42(%rbp)
    270b:	89 df                	mov    %ebx,%edi
    270d:	e8 ce e8 ff ff       	callq  fe0 <close@plt>
    2712:	b8 ff ff ff ff       	mov    $0xffffffff,%eax
    2717:	e9 af fd ff ff       	jmpq   24cb <submitr+0x2ec>
    271c:	48 b8 45 72 72 6f 72 	movabs $0x43203a726f727245,%rax
    2723:	3a 20 43 
    2726:	48 ba 6c 69 65 6e 74 	movabs $0x6e7520746e65696c,%rdx
    272d:	20 75 6e 
    2730:	48 89 45 00          	mov    %rax,0x0(%rbp)
    2734:	48 89 55 08          	mov    %rdx,0x8(%rbp)
    2738:	48 b8 61 62 6c 65 20 	movabs $0x206f7420656c6261,%rax
    273f:	74 6f 20 
    2742:	48 ba 77 72 69 74 65 	movabs $0x6f74206574697277,%rdx
    2749:	20 74 6f 
    274c:	48 89 45 10          	mov    %rax,0x10(%rbp)
    2750:	48 89 55 18          	mov    %rdx,0x18(%rbp)
    2754:	48 b8 20 74 68 65 20 	movabs $0x7475412065687420,%rax
    275b:	41 75 74 
    275e:	48 ba 6f 6c 61 62 20 	movabs $0x7265732062616c6f,%rdx
    2765:	73 65 72 
    2768:	48 89 45 20          	mov    %rax,0x20(%rbp)
    276c:	48 89 55 28          	mov    %rdx,0x28(%rbp)
    2770:	c7 45 30 76 65 72 00 	movl   $0x726576,0x30(%rbp)
    2777:	89 df                	mov    %ebx,%edi
    2779:	e8 62 e8 ff ff       	callq  fe0 <close@plt>
    277e:	b8 ff ff ff ff       	mov    $0xffffffff,%eax
    2783:	e9 43 fd ff ff       	jmpq   24cb <submitr+0x2ec>
    2788:	48 b8 45 72 72 6f 72 	movabs $0x43203a726f727245,%rax
    278f:	3a 20 43 
    2792:	48 ba 6c 69 65 6e 74 	movabs $0x6e7520746e65696c,%rdx
    2799:	20 75 6e 
    279c:	48 89 45 00          	mov    %rax,0x0(%rbp)
    27a0:	48 89 55 08          	mov    %rdx,0x8(%rbp)
    27a4:	48 b8 61 62 6c 65 20 	movabs $0x206f7420656c6261,%rax
    27ab:	74 6f 20 
    27ae:	48 ba 72 65 61 64 20 	movabs $0x7269662064616572,%rdx
    27b5:	66 69 72 
    27b8:	48 89 45 10          	mov    %rax,0x10(%rbp)
    27bc:	48 89 55 18          	mov    %rdx,0x18(%rbp)
    27c0:	48 b8 73 74 20 68 65 	movabs $0x6564616568207473,%rax
    27c7:	61 64 65 
    27ca:	48 ba 72 20 66 72 6f 	movabs $0x41206d6f72662072,%rdx
    27d1:	6d 20 41 
    27d4:	48 89 45 20          	mov    %rax,0x20(%rbp)
    27d8:	48 89 55 28          	mov    %rdx,0x28(%rbp)
    27dc:	48 b8 75 74 6f 6c 61 	movabs $0x732062616c6f7475,%rax
    27e3:	62 20 73 
    27e6:	48 89 45 30          	mov    %rax,0x30(%rbp)
    27ea:	c7 45 38 65 72 76 65 	movl   $0x65767265,0x38(%rbp)
    27f1:	66 c7 45 3c 72 00    	movw   $0x72,0x3c(%rbp)
    27f7:	89 df                	mov    %ebx,%edi
    27f9:	e8 e2 e7 ff ff       	callq  fe0 <close@plt>
    27fe:	b8 ff ff ff ff       	mov    $0xffffffff,%eax
    2803:	e9 c3 fc ff ff       	jmpq   24cb <submitr+0x2ec>
    2808:	48 8d b4 24 50 20 00 	lea    0x2050(%rsp),%rsi
    280f:	00 
    2810:	48 8d 7c 24 40       	lea    0x40(%rsp),%rdi
    2815:	ba 00 20 00 00       	mov    $0x2000,%edx
    281a:	e8 09 f8 ff ff       	callq  2028 <rio_readlineb>
    281f:	48 85 c0             	test   %rax,%rax
    2822:	0f 8e 96 00 00 00    	jle    28be <submitr+0x6df>
    2828:	44 8b 44 24 2c       	mov    0x2c(%rsp),%r8d
    282d:	41 81 f8 c8 00 00 00 	cmp    $0xc8,%r8d
    2834:	0f 85 05 01 00 00    	jne    293f <submitr+0x760>
    283a:	48 8d b4 24 50 20 00 	lea    0x2050(%rsp),%rsi
    2841:	00 
    2842:	48 89 ef             	mov    %rbp,%rdi
    2845:	e8 46 e7 ff ff       	callq  f90 <strcpy@plt>
    284a:	89 df                	mov    %ebx,%edi
    284c:	e8 8f e7 ff ff       	callq  fe0 <close@plt>
    2851:	b9 04 00 00 00       	mov    $0x4,%ecx
    2856:	48 8d 3d 2b 0b 00 00 	lea    0xb2b(%rip),%rdi        # 3388 <array.3419+0x488>
    285d:	48 89 ee             	mov    %rbp,%rsi
    2860:	f3 a6                	repz cmpsb %es:(%rdi),%ds:(%rsi)
    2862:	0f 97 c0             	seta   %al
    2865:	1c 00                	sbb    $0x0,%al
    2867:	0f be c0             	movsbl %al,%eax
    286a:	85 c0                	test   %eax,%eax
    286c:	0f 84 59 fc ff ff    	je     24cb <submitr+0x2ec>
    2872:	b9 05 00 00 00       	mov    $0x5,%ecx
    2877:	48 8d 3d 0e 0b 00 00 	lea    0xb0e(%rip),%rdi        # 338c <array.3419+0x48c>
    287e:	48 89 ee             	mov    %rbp,%rsi
    2881:	f3 a6                	repz cmpsb %es:(%rdi),%ds:(%rsi)
    2883:	0f 97 c0             	seta   %al
    2886:	1c 00                	sbb    $0x0,%al
    2888:	0f be c0             	movsbl %al,%eax
    288b:	85 c0                	test   %eax,%eax
    288d:	0f 84 38 fc ff ff    	je     24cb <submitr+0x2ec>
    2893:	b9 03 00 00 00       	mov    $0x3,%ecx
    2898:	48 8d 3d f2 0a 00 00 	lea    0xaf2(%rip),%rdi        # 3391 <array.3419+0x491>
    289f:	48 89 ee             	mov    %rbp,%rsi
    28a2:	f3 a6                	repz cmpsb %es:(%rdi),%ds:(%rsi)
    28a4:	0f 97 c0             	seta   %al
    28a7:	1c 00                	sbb    $0x0,%al
    28a9:	0f be c0             	movsbl %al,%eax
    28ac:	85 c0                	test   %eax,%eax
    28ae:	0f 84 17 fc ff ff    	je     24cb <submitr+0x2ec>
    28b4:	b8 ff ff ff ff       	mov    $0xffffffff,%eax
    28b9:	e9 0d fc ff ff       	jmpq   24cb <submitr+0x2ec>
    28be:	48 b8 45 72 72 6f 72 	movabs $0x43203a726f727245,%rax
    28c5:	3a 20 43 
    28c8:	48 ba 6c 69 65 6e 74 	movabs $0x6e7520746e65696c,%rdx
    28cf:	20 75 6e 
    28d2:	48 89 45 00          	mov    %rax,0x0(%rbp)
    28d6:	48 89 55 08          	mov    %rdx,0x8(%rbp)
    28da:	48 b8 61 62 6c 65 20 	movabs $0x206f7420656c6261,%rax
    28e1:	74 6f 20 
    28e4:	48 ba 72 65 61 64 20 	movabs $0x6174732064616572,%rdx
    28eb:	73 74 61 
    28ee:	48 89 45 10          	mov    %rax,0x10(%rbp)
    28f2:	48 89 55 18          	mov    %rdx,0x18(%rbp)
    28f6:	48 b8 74 75 73 20 6d 	movabs $0x7373656d20737574,%rax
    28fd:	65 73 73 
    2900:	48 ba 61 67 65 20 66 	movabs $0x6d6f726620656761,%rdx
    2907:	72 6f 6d 
    290a:	48 89 45 20          	mov    %rax,0x20(%rbp)
    290e:	48 89 55 28          	mov    %rdx,0x28(%rbp)
    2912:	48 b8 20 41 75 74 6f 	movabs $0x62616c6f74754120,%rax
    2919:	6c 61 62 
    291c:	48 ba 20 73 65 72 76 	movabs $0x72657672657320,%rdx
    2923:	65 72 00 
    2926:	48 89 45 30          	mov    %rax,0x30(%rbp)
    292a:	48 89 55 38          	mov    %rdx,0x38(%rbp)
    292e:	89 df                	mov    %ebx,%edi
    2930:	e8 ab e6 ff ff       	callq  fe0 <close@plt>
    2935:	b8 ff ff ff ff       	mov    $0xffffffff,%eax
    293a:	e9 8c fb ff ff       	jmpq   24cb <submitr+0x2ec>
    293f:	4c 8d 8c 24 50 80 00 	lea    0x8050(%rsp),%r9
    2946:	00 
    2947:	48 8d 0d f2 09 00 00 	lea    0x9f2(%rip),%rcx        # 3340 <array.3419+0x440>
    294e:	48 c7 c2 ff ff ff ff 	mov    $0xffffffffffffffff,%rdx
    2955:	be 01 00 00 00       	mov    $0x1,%esi
    295a:	48 89 ef             	mov    %rbp,%rdi
    295d:	b8 00 00 00 00       	mov    $0x0,%eax
    2962:	e8 99 e7 ff ff       	callq  1100 <__sprintf_chk@plt>
    2967:	89 df                	mov    %ebx,%edi
    2969:	e8 72 e6 ff ff       	callq  fe0 <close@plt>
    296e:	b8 ff ff ff ff       	mov    $0xffffffff,%eax
    2973:	e9 53 fb ff ff       	jmpq   24cb <submitr+0x2ec>
    2978:	e8 43 e6 ff ff       	callq  fc0 <__stack_chk_fail@plt>

000000000000297d <init_timeout>:
    297d:	85 ff                	test   %edi,%edi
    297f:	74 28                	je     29a9 <init_timeout+0x2c>
    2981:	53                   	push   %rbx
    2982:	89 fb                	mov    %edi,%ebx
    2984:	85 ff                	test   %edi,%edi
    2986:	78 1a                	js     29a2 <init_timeout+0x25>
    2988:	48 8d 35 80 f5 ff ff 	lea    -0xa80(%rip),%rsi        # 1f0f <sigalrm_handler>
    298f:	bf 0e 00 00 00       	mov    $0xe,%edi
    2994:	e8 77 e6 ff ff       	callq  1010 <signal@plt>
    2999:	89 df                	mov    %ebx,%edi
    299b:	e8 30 e6 ff ff       	callq  fd0 <alarm@plt>
    29a0:	5b                   	pop    %rbx
    29a1:	c3                   	retq   
    29a2:	bb 00 00 00 00       	mov    $0x0,%ebx
    29a7:	eb df                	jmp    2988 <init_timeout+0xb>
    29a9:	f3 c3                	repz retq 

00000000000029ab <init_driver>:
    29ab:	41 54                	push   %r12
    29ad:	55                   	push   %rbp
    29ae:	53                   	push   %rbx
    29af:	48 83 ec 20          	sub    $0x20,%rsp
    29b3:	49 89 fc             	mov    %rdi,%r12
    29b6:	64 48 8b 04 25 28 00 	mov    %fs:0x28,%rax
    29bd:	00 00 
    29bf:	48 89 44 24 18       	mov    %rax,0x18(%rsp)
    29c4:	31 c0                	xor    %eax,%eax
    29c6:	be 01 00 00 00       	mov    $0x1,%esi
    29cb:	bf 0d 00 00 00       	mov    $0xd,%edi
    29d0:	e8 3b e6 ff ff       	callq  1010 <signal@plt>
    29d5:	be 01 00 00 00       	mov    $0x1,%esi
    29da:	bf 1d 00 00 00       	mov    $0x1d,%edi
    29df:	e8 2c e6 ff ff       	callq  1010 <signal@plt>
    29e4:	be 01 00 00 00       	mov    $0x1,%esi
    29e9:	bf 1d 00 00 00       	mov    $0x1d,%edi
    29ee:	e8 1d e6 ff ff       	callq  1010 <signal@plt>
    29f3:	ba 00 00 00 00       	mov    $0x0,%edx
    29f8:	be 01 00 00 00       	mov    $0x1,%esi
    29fd:	bf 02 00 00 00       	mov    $0x2,%edi
    2a02:	e8 09 e7 ff ff       	callq  1110 <socket@plt>
    2a07:	85 c0                	test   %eax,%eax
    2a09:	0f 88 a3 00 00 00    	js     2ab2 <init_driver+0x107>
    2a0f:	89 c3                	mov    %eax,%ebx
    2a11:	48 8d 3d 7c 09 00 00 	lea    0x97c(%rip),%rdi        # 3394 <array.3419+0x494>
    2a18:	e8 03 e6 ff ff       	callq  1020 <gethostbyname@plt>
    2a1d:	48 85 c0             	test   %rax,%rax
    2a20:	0f 84 df 00 00 00    	je     2b05 <init_driver+0x15a>
    2a26:	48 89 e5             	mov    %rsp,%rbp
    2a29:	48 c7 44 24 02 00 00 	movq   $0x0,0x2(%rsp)
    2a30:	00 00 
    2a32:	c7 45 0a 00 00 00 00 	movl   $0x0,0xa(%rbp)
    2a39:	66 c7 45 0e 00 00    	movw   $0x0,0xe(%rbp)
    2a3f:	66 c7 04 24 02 00    	movw   $0x2,(%rsp)
    2a45:	48 63 50 14          	movslq 0x14(%rax),%rdx
    2a49:	48 8b 40 18          	mov    0x18(%rax),%rax
    2a4d:	48 8b 30             	mov    (%rax),%rsi
    2a50:	48 8d 7d 04          	lea    0x4(%rbp),%rdi
    2a54:	b9 0c 00 00 00       	mov    $0xc,%ecx
    2a59:	e8 d2 e5 ff ff       	callq  1030 <__memmove_chk@plt>
    2a5e:	66 c7 44 24 02 0b b8 	movw   $0xb80b,0x2(%rsp)
    2a65:	ba 10 00 00 00       	mov    $0x10,%edx
    2a6a:	48 89 ee             	mov    %rbp,%rsi
    2a6d:	89 df                	mov    %ebx,%edi
    2a6f:	e8 4c e6 ff ff       	callq  10c0 <connect@plt>
    2a74:	85 c0                	test   %eax,%eax
    2a76:	0f 88 fb 00 00 00    	js     2b77 <init_driver+0x1cc>
    2a7c:	89 df                	mov    %ebx,%edi
    2a7e:	e8 5d e5 ff ff       	callq  fe0 <close@plt>
    2a83:	66 41 c7 04 24 4f 4b 	movw   $0x4b4f,(%r12)
    2a8a:	41 c6 44 24 02 00    	movb   $0x0,0x2(%r12)
    2a90:	b8 00 00 00 00       	mov    $0x0,%eax
    2a95:	48 8b 4c 24 18       	mov    0x18(%rsp),%rcx
    2a9a:	64 48 33 0c 25 28 00 	xor    %fs:0x28,%rcx
    2aa1:	00 00 
    2aa3:	0f 85 28 01 00 00    	jne    2bd1 <init_driver+0x226>
    2aa9:	48 83 c4 20          	add    $0x20,%rsp
    2aad:	5b                   	pop    %rbx
    2aae:	5d                   	pop    %rbp
    2aaf:	41 5c                	pop    %r12
    2ab1:	c3                   	retq   
    2ab2:	48 b8 45 72 72 6f 72 	movabs $0x43203a726f727245,%rax
    2ab9:	3a 20 43 
    2abc:	48 ba 6c 69 65 6e 74 	movabs $0x6e7520746e65696c,%rdx
    2ac3:	20 75 6e 
    2ac6:	49 89 04 24          	mov    %rax,(%r12)
    2aca:	49 89 54 24 08       	mov    %rdx,0x8(%r12)
    2acf:	48 b8 61 62 6c 65 20 	movabs $0x206f7420656c6261,%rax
    2ad6:	74 6f 20 
    2ad9:	48 ba 63 72 65 61 74 	movabs $0x7320657461657263,%rdx
    2ae0:	65 20 73 
    2ae3:	49 89 44 24 10       	mov    %rax,0x10(%r12)
    2ae8:	49 89 54 24 18       	mov    %rdx,0x18(%r12)
    2aed:	41 c7 44 24 20 6f 63 	movl   $0x656b636f,0x20(%r12)
    2af4:	6b 65 
    2af6:	66 41 c7 44 24 24 74 	movw   $0x74,0x24(%r12)
    2afd:	00 
    2afe:	b8 ff ff ff ff       	mov    $0xffffffff,%eax
    2b03:	eb 90                	jmp    2a95 <init_driver+0xea>
    2b05:	48 b8 45 72 72 6f 72 	movabs $0x44203a726f727245,%rax
    2b0c:	3a 20 44 
    2b0f:	48 ba 4e 53 20 69 73 	movabs $0x6e7520736920534e,%rdx
    2b16:	20 75 6e 
    2b19:	49 89 04 24          	mov    %rax,(%r12)
    2b1d:	49 89 54 24 08       	mov    %rdx,0x8(%r12)
    2b22:	48 b8 61 62 6c 65 20 	movabs $0x206f7420656c6261,%rax
    2b29:	74 6f 20 
    2b2c:	48 ba 72 65 73 6f 6c 	movabs $0x2065766c6f736572,%rdx
    2b33:	76 65 20 
    2b36:	49 89 44 24 10       	mov    %rax,0x10(%r12)
    2b3b:	49 89 54 24 18       	mov    %rdx,0x18(%r12)
    2b40:	48 b8 73 65 72 76 65 	movabs $0x6120726576726573,%rax
    2b47:	72 20 61 
    2b4a:	49 89 44 24 20       	mov    %rax,0x20(%r12)
    2b4f:	41 c7 44 24 28 64 64 	movl   $0x65726464,0x28(%r12)
    2b56:	72 65 
    2b58:	66 41 c7 44 24 2c 73 	movw   $0x7373,0x2c(%r12)
    2b5f:	73 
    2b60:	41 c6 44 24 2e 00    	movb   $0x0,0x2e(%r12)
    2b66:	89 df                	mov    %ebx,%edi
    2b68:	e8 73 e4 ff ff       	callq  fe0 <close@plt>
    2b6d:	b8 ff ff ff ff       	mov    $0xffffffff,%eax
    2b72:	e9 1e ff ff ff       	jmpq   2a95 <init_driver+0xea>
    2b77:	48 b8 45 72 72 6f 72 	movabs $0x55203a726f727245,%rax
    2b7e:	3a 20 55 
    2b81:	48 ba 6e 61 62 6c 65 	movabs $0x6f7420656c62616e,%rdx
    2b88:	20 74 6f 
    2b8b:	49 89 04 24          	mov    %rax,(%r12)
    2b8f:	49 89 54 24 08       	mov    %rdx,0x8(%r12)
    2b94:	48 b8 20 63 6f 6e 6e 	movabs $0x7463656e6e6f6320,%rax
    2b9b:	65 63 74 
    2b9e:	48 ba 20 74 6f 20 73 	movabs $0x76726573206f7420,%rdx
    2ba5:	65 72 76 
    2ba8:	49 89 44 24 10       	mov    %rax,0x10(%r12)
    2bad:	49 89 54 24 18       	mov    %rdx,0x18(%r12)
    2bb2:	66 41 c7 44 24 20 65 	movw   $0x7265,0x20(%r12)
    2bb9:	72 
    2bba:	41 c6 44 24 22 00    	movb   $0x0,0x22(%r12)
    2bc0:	89 df                	mov    %ebx,%edi
    2bc2:	e8 19 e4 ff ff       	callq  fe0 <close@plt>
    2bc7:	b8 ff ff ff ff       	mov    $0xffffffff,%eax
    2bcc:	e9 c4 fe ff ff       	jmpq   2a95 <init_driver+0xea>
    2bd1:	e8 ea e3 ff ff       	callq  fc0 <__stack_chk_fail@plt>

0000000000002bd6 <driver_post>:
    2bd6:	53                   	push   %rbx
    2bd7:	4c 89 cb             	mov    %r9,%rbx
    2bda:	45 85 c0             	test   %r8d,%r8d
    2bdd:	75 18                	jne    2bf7 <driver_post+0x21>
    2bdf:	48 85 ff             	test   %rdi,%rdi
    2be2:	74 05                	je     2be9 <driver_post+0x13>
    2be4:	80 3f 00             	cmpb   $0x0,(%rdi)
    2be7:	75 37                	jne    2c20 <driver_post+0x4a>
    2be9:	66 c7 03 4f 4b       	movw   $0x4b4f,(%rbx)
    2bee:	c6 43 02 00          	movb   $0x0,0x2(%rbx)
    2bf2:	44 89 c0             	mov    %r8d,%eax
    2bf5:	5b                   	pop    %rbx
    2bf6:	c3                   	retq   
    2bf7:	48 89 ca             	mov    %rcx,%rdx
    2bfa:	48 8d 35 a3 07 00 00 	lea    0x7a3(%rip),%rsi        # 33a4 <array.3419+0x4a4>
    2c01:	bf 01 00 00 00       	mov    $0x1,%edi
    2c06:	b8 00 00 00 00       	mov    $0x0,%eax
    2c0b:	e8 70 e4 ff ff       	callq  1080 <__printf_chk@plt>
    2c10:	66 c7 03 4f 4b       	movw   $0x4b4f,(%rbx)
    2c15:	c6 43 02 00          	movb   $0x0,0x2(%rbx)
    2c19:	b8 00 00 00 00       	mov    $0x0,%eax
    2c1e:	eb d5                	jmp    2bf5 <driver_post+0x1f>
    2c20:	48 83 ec 08          	sub    $0x8,%rsp
    2c24:	41 51                	push   %r9
    2c26:	49 89 c9             	mov    %rcx,%r9
    2c29:	49 89 d0             	mov    %rdx,%r8
    2c2c:	48 89 f9             	mov    %rdi,%rcx
    2c2f:	48 89 f2             	mov    %rsi,%rdx
    2c32:	be b8 0b 00 00       	mov    $0xbb8,%esi
    2c37:	48 8d 3d 56 07 00 00 	lea    0x756(%rip),%rdi        # 3394 <array.3419+0x494>
    2c3e:	e8 9c f5 ff ff       	callq  21df <submitr>
    2c43:	48 83 c4 10          	add    $0x10,%rsp
    2c47:	eb ac                	jmp    2bf5 <driver_post+0x1f>
    2c49:	0f 1f 80 00 00 00 00 	nopl   0x0(%rax)

0000000000002c50 <__libc_csu_init>:
    2c50:	41 57                	push   %r15
    2c52:	41 56                	push   %r14
    2c54:	49 89 d7             	mov    %rdx,%r15
    2c57:	41 55                	push   %r13
    2c59:	41 54                	push   %r12
    2c5b:	4c 8d 25 6e 10 20 00 	lea    0x20106e(%rip),%r12        # 203cd0 <__frame_dummy_init_array_entry>
    2c62:	55                   	push   %rbp
    2c63:	48 8d 2d 6e 10 20 00 	lea    0x20106e(%rip),%rbp        # 203cd8 <__init_array_end>
    2c6a:	53                   	push   %rbx
    2c6b:	41 89 fd             	mov    %edi,%r13d
    2c6e:	49 89 f6             	mov    %rsi,%r14
    2c71:	4c 29 e5             	sub    %r12,%rbp
    2c74:	48 83 ec 08          	sub    $0x8,%rsp
    2c78:	48 c1 fd 03          	sar    $0x3,%rbp
    2c7c:	e8 af e2 ff ff       	callq  f30 <_init>
    2c81:	48 85 ed             	test   %rbp,%rbp
    2c84:	74 20                	je     2ca6 <__libc_csu_init+0x56>
    2c86:	31 db                	xor    %ebx,%ebx
    2c88:	0f 1f 84 00 00 00 00 	nopl   0x0(%rax,%rax,1)
    2c8f:	00 
    2c90:	4c 89 fa             	mov    %r15,%rdx
    2c93:	4c 89 f6             	mov    %r14,%rsi
    2c96:	44 89 ef             	mov    %r13d,%edi
    2c99:	41 ff 14 dc          	callq  *(%r12,%rbx,8)
    2c9d:	48 83 c3 01          	add    $0x1,%rbx
    2ca1:	48 39 dd             	cmp    %rbx,%rbp
    2ca4:	75 ea                	jne    2c90 <__libc_csu_init+0x40>
    2ca6:	48 83 c4 08          	add    $0x8,%rsp
    2caa:	5b                   	pop    %rbx
    2cab:	5d                   	pop    %rbp
    2cac:	41 5c                	pop    %r12
    2cae:	41 5d                	pop    %r13
    2cb0:	41 5e                	pop    %r14
    2cb2:	41 5f                	pop    %r15
    2cb4:	c3                   	retq   
    2cb5:	90                   	nop
    2cb6:	66 2e 0f 1f 84 00 00 	nopw   %cs:0x0(%rax,%rax,1)
    2cbd:	00 00 00 

0000000000002cc0 <__libc_csu_fini>:
    2cc0:	f3 c3                	repz retq 

Disassembly of section .fini:

0000000000002cc4 <_fini>:
    2cc4:	48 83 ec 08          	sub    $0x8,%rsp
    2cc8:	48 83 c4 08          	add    $0x8,%rsp
    2ccc:	c3                   	retq   
aurora@aurora-virtual-machine:~/ICS/2_bomblab/bomblab/bomb429$ 

